ARM GAS  C:\Users\chascha\AppData\Local\Temp\ccV3bhaz.s 			page 1


   1              		.syntax unified
   2              		.cpu cortex-m3
   3              		.fpu softvfp
   4              		.eabi_attribute 20, 1
   5              		.eabi_attribute 21, 1
   6              		.eabi_attribute 23, 3
   7              		.eabi_attribute 24, 1
   8              		.eabi_attribute 25, 1
   9              		.eabi_attribute 26, 1
  10              		.eabi_attribute 30, 1
  11              		.eabi_attribute 34, 1
  12              		.eabi_attribute 18, 4
  13              		.thumb
  14              		.syntax unified
  15              		.file	"BackISR.c"
  16              		.text
  17              	.Ltext0:
  18              		.cfi_sections	.debug_frame
  19              		.section	.text.BackISR_Interrupt,"ax",%progbits
  20              		.align	2
  21              		.global	BackISR_Interrupt
  22              		.thumb
  23              		.thumb_func
  24              		.type	BackISR_Interrupt, %function
  25              	BackISR_Interrupt:
  26              	.LFB4:
  27              		.file 1 "Generated_Source\\PSoC5\\BackISR.c"
   1:Generated_Source\PSoC5/BackISR.c **** /*******************************************************************************
   2:Generated_Source\PSoC5/BackISR.c **** * File Name: BackISR.c  
   3:Generated_Source\PSoC5/BackISR.c **** * Version 1.71
   4:Generated_Source\PSoC5/BackISR.c **** *
   5:Generated_Source\PSoC5/BackISR.c **** *  Description:
   6:Generated_Source\PSoC5/BackISR.c **** *   API for controlling the state of an interrupt.
   7:Generated_Source\PSoC5/BackISR.c **** *
   8:Generated_Source\PSoC5/BackISR.c **** *
   9:Generated_Source\PSoC5/BackISR.c **** *  Note:
  10:Generated_Source\PSoC5/BackISR.c **** *
  11:Generated_Source\PSoC5/BackISR.c **** ********************************************************************************
  12:Generated_Source\PSoC5/BackISR.c **** * Copyright 2008-2015, Cypress Semiconductor Corporation.  All rights reserved.
  13:Generated_Source\PSoC5/BackISR.c **** * You may use this file only in accordance with the license, terms, conditions, 
  14:Generated_Source\PSoC5/BackISR.c **** * disclaimers, and limitations in the end user license agreement accompanying 
  15:Generated_Source\PSoC5/BackISR.c **** * the software package with which this file was provided.
  16:Generated_Source\PSoC5/BackISR.c **** *******************************************************************************/
  17:Generated_Source\PSoC5/BackISR.c **** 
  18:Generated_Source\PSoC5/BackISR.c **** 
  19:Generated_Source\PSoC5/BackISR.c **** #include <cydevice_trm.h>
  20:Generated_Source\PSoC5/BackISR.c **** #include <CyLib.h>
  21:Generated_Source\PSoC5/BackISR.c **** #include <BackISR.h>
  22:Generated_Source\PSoC5/BackISR.c **** #include "cyapicallbacks.h"
  23:Generated_Source\PSoC5/BackISR.c **** 
  24:Generated_Source\PSoC5/BackISR.c **** #if !defined(BackISR__REMOVED) /* Check for removal by optimization */
  25:Generated_Source\PSoC5/BackISR.c **** 
  26:Generated_Source\PSoC5/BackISR.c **** /*******************************************************************************
  27:Generated_Source\PSoC5/BackISR.c **** *  Place your includes, defines and code here 
  28:Generated_Source\PSoC5/BackISR.c **** ********************************************************************************/
  29:Generated_Source\PSoC5/BackISR.c **** /* `#START BackISR_intc` */
  30:Generated_Source\PSoC5/BackISR.c **** 
ARM GAS  C:\Users\chascha\AppData\Local\Temp\ccV3bhaz.s 			page 2


  31:Generated_Source\PSoC5/BackISR.c **** volatile int mPos;
  32:Generated_Source\PSoC5/BackISR.c ****     volatile char mFlag;
  33:Generated_Source\PSoC5/BackISR.c ****     volatile uint8 buttonID;
  34:Generated_Source\PSoC5/BackISR.c ****     #include "UART.h"
  35:Generated_Source\PSoC5/BackISR.c ****     #include "LCD_I2C_FUNCS.h"
  36:Generated_Source\PSoC5/BackISR.c ****     #include "I2C.h"
  37:Generated_Source\PSoC5/BackISR.c **** 
  38:Generated_Source\PSoC5/BackISR.c **** 
  39:Generated_Source\PSoC5/BackISR.c ****     #include "MotorISR.h"
  40:Generated_Source\PSoC5/BackISR.c ****     #include "stdio.h"
  41:Generated_Source\PSoC5/BackISR.c **** /* `#END` */
  42:Generated_Source\PSoC5/BackISR.c **** 
  43:Generated_Source\PSoC5/BackISR.c **** #ifndef CYINT_IRQ_BASE
  44:Generated_Source\PSoC5/BackISR.c **** #define CYINT_IRQ_BASE      16
  45:Generated_Source\PSoC5/BackISR.c **** #endif /* CYINT_IRQ_BASE */
  46:Generated_Source\PSoC5/BackISR.c **** #ifndef CYINT_VECT_TABLE
  47:Generated_Source\PSoC5/BackISR.c **** #define CYINT_VECT_TABLE    ((cyisraddress **) CYREG_NVIC_VECT_OFFSET)
  48:Generated_Source\PSoC5/BackISR.c **** #endif /* CYINT_VECT_TABLE */
  49:Generated_Source\PSoC5/BackISR.c **** 
  50:Generated_Source\PSoC5/BackISR.c **** /* Declared in startup, used to set unused interrupts to. */
  51:Generated_Source\PSoC5/BackISR.c **** CY_ISR_PROTO(IntDefaultHandler);
  52:Generated_Source\PSoC5/BackISR.c **** 
  53:Generated_Source\PSoC5/BackISR.c **** 
  54:Generated_Source\PSoC5/BackISR.c **** /*******************************************************************************
  55:Generated_Source\PSoC5/BackISR.c **** * Function Name: BackISR_Start
  56:Generated_Source\PSoC5/BackISR.c **** ********************************************************************************
  57:Generated_Source\PSoC5/BackISR.c **** *
  58:Generated_Source\PSoC5/BackISR.c **** * Summary:
  59:Generated_Source\PSoC5/BackISR.c **** *  Set up the interrupt and enable it. This function disables the interrupt, 
  60:Generated_Source\PSoC5/BackISR.c **** *  sets the default interrupt vector, sets the priority from the value in the
  61:Generated_Source\PSoC5/BackISR.c **** *  Design Wide Resources Interrupt Editor, then enables the interrupt to the 
  62:Generated_Source\PSoC5/BackISR.c **** *  interrupt controller.
  63:Generated_Source\PSoC5/BackISR.c **** *
  64:Generated_Source\PSoC5/BackISR.c **** * Parameters:  
  65:Generated_Source\PSoC5/BackISR.c **** *   None
  66:Generated_Source\PSoC5/BackISR.c **** *
  67:Generated_Source\PSoC5/BackISR.c **** * Return:
  68:Generated_Source\PSoC5/BackISR.c **** *   None
  69:Generated_Source\PSoC5/BackISR.c **** *
  70:Generated_Source\PSoC5/BackISR.c **** *******************************************************************************/
  71:Generated_Source\PSoC5/BackISR.c **** void BackISR_Start(void)
  72:Generated_Source\PSoC5/BackISR.c **** {
  73:Generated_Source\PSoC5/BackISR.c ****     /* For all we know the interrupt is active. */
  74:Generated_Source\PSoC5/BackISR.c ****     BackISR_Disable();
  75:Generated_Source\PSoC5/BackISR.c **** 
  76:Generated_Source\PSoC5/BackISR.c ****     /* Set the ISR to point to the BackISR Interrupt. */
  77:Generated_Source\PSoC5/BackISR.c ****     BackISR_SetVector(&BackISR_Interrupt);
  78:Generated_Source\PSoC5/BackISR.c **** 
  79:Generated_Source\PSoC5/BackISR.c ****     /* Set the priority. */
  80:Generated_Source\PSoC5/BackISR.c ****     BackISR_SetPriority((uint8)BackISR_INTC_PRIOR_NUMBER);
  81:Generated_Source\PSoC5/BackISR.c **** 
  82:Generated_Source\PSoC5/BackISR.c ****     /* Enable it. */
  83:Generated_Source\PSoC5/BackISR.c ****     BackISR_Enable();
  84:Generated_Source\PSoC5/BackISR.c **** }
  85:Generated_Source\PSoC5/BackISR.c **** 
  86:Generated_Source\PSoC5/BackISR.c **** 
  87:Generated_Source\PSoC5/BackISR.c **** /*******************************************************************************
ARM GAS  C:\Users\chascha\AppData\Local\Temp\ccV3bhaz.s 			page 3


  88:Generated_Source\PSoC5/BackISR.c **** * Function Name: BackISR_StartEx
  89:Generated_Source\PSoC5/BackISR.c **** ********************************************************************************
  90:Generated_Source\PSoC5/BackISR.c **** *
  91:Generated_Source\PSoC5/BackISR.c **** * Summary:
  92:Generated_Source\PSoC5/BackISR.c **** *  Sets up the interrupt and enables it. This function disables the interrupt,
  93:Generated_Source\PSoC5/BackISR.c **** *  sets the interrupt vector based on the address passed in, sets the priority 
  94:Generated_Source\PSoC5/BackISR.c **** *  from the value in the Design Wide Resources Interrupt Editor, then enables 
  95:Generated_Source\PSoC5/BackISR.c **** *  the interrupt to the interrupt controller.
  96:Generated_Source\PSoC5/BackISR.c **** *  
  97:Generated_Source\PSoC5/BackISR.c **** *  When defining ISR functions, the CY_ISR and CY_ISR_PROTO macros should be 
  98:Generated_Source\PSoC5/BackISR.c **** *  used to provide consistent definition across compilers:
  99:Generated_Source\PSoC5/BackISR.c **** *  
 100:Generated_Source\PSoC5/BackISR.c **** *  Function definition example:
 101:Generated_Source\PSoC5/BackISR.c **** *   CY_ISR(MyISR)
 102:Generated_Source\PSoC5/BackISR.c **** *   {
 103:Generated_Source\PSoC5/BackISR.c **** *   }
 104:Generated_Source\PSoC5/BackISR.c **** *   Function prototype example:
 105:Generated_Source\PSoC5/BackISR.c **** *   CY_ISR_PROTO(MyISR);
 106:Generated_Source\PSoC5/BackISR.c **** *
 107:Generated_Source\PSoC5/BackISR.c **** * Parameters:  
 108:Generated_Source\PSoC5/BackISR.c **** *   address: Address of the ISR to set in the interrupt vector table.
 109:Generated_Source\PSoC5/BackISR.c **** *
 110:Generated_Source\PSoC5/BackISR.c **** * Return:
 111:Generated_Source\PSoC5/BackISR.c **** *   None
 112:Generated_Source\PSoC5/BackISR.c **** *
 113:Generated_Source\PSoC5/BackISR.c **** *******************************************************************************/
 114:Generated_Source\PSoC5/BackISR.c **** void BackISR_StartEx(cyisraddress address)
 115:Generated_Source\PSoC5/BackISR.c **** {
 116:Generated_Source\PSoC5/BackISR.c ****     /* For all we know the interrupt is active. */
 117:Generated_Source\PSoC5/BackISR.c ****     BackISR_Disable();
 118:Generated_Source\PSoC5/BackISR.c **** 
 119:Generated_Source\PSoC5/BackISR.c ****     /* Set the ISR to point to the BackISR Interrupt. */
 120:Generated_Source\PSoC5/BackISR.c ****     BackISR_SetVector(address);
 121:Generated_Source\PSoC5/BackISR.c **** 
 122:Generated_Source\PSoC5/BackISR.c ****     /* Set the priority. */
 123:Generated_Source\PSoC5/BackISR.c ****     BackISR_SetPriority((uint8)BackISR_INTC_PRIOR_NUMBER);
 124:Generated_Source\PSoC5/BackISR.c **** 
 125:Generated_Source\PSoC5/BackISR.c ****     /* Enable it. */
 126:Generated_Source\PSoC5/BackISR.c ****     BackISR_Enable();
 127:Generated_Source\PSoC5/BackISR.c **** }
 128:Generated_Source\PSoC5/BackISR.c **** 
 129:Generated_Source\PSoC5/BackISR.c **** 
 130:Generated_Source\PSoC5/BackISR.c **** /*******************************************************************************
 131:Generated_Source\PSoC5/BackISR.c **** * Function Name: BackISR_Stop
 132:Generated_Source\PSoC5/BackISR.c **** ********************************************************************************
 133:Generated_Source\PSoC5/BackISR.c **** *
 134:Generated_Source\PSoC5/BackISR.c **** * Summary:
 135:Generated_Source\PSoC5/BackISR.c **** *   Disables and removes the interrupt.
 136:Generated_Source\PSoC5/BackISR.c **** *
 137:Generated_Source\PSoC5/BackISR.c **** * Parameters:  
 138:Generated_Source\PSoC5/BackISR.c **** *   None
 139:Generated_Source\PSoC5/BackISR.c **** *
 140:Generated_Source\PSoC5/BackISR.c **** * Return:
 141:Generated_Source\PSoC5/BackISR.c **** *   None
 142:Generated_Source\PSoC5/BackISR.c **** *
 143:Generated_Source\PSoC5/BackISR.c **** *******************************************************************************/
 144:Generated_Source\PSoC5/BackISR.c **** void BackISR_Stop(void)
ARM GAS  C:\Users\chascha\AppData\Local\Temp\ccV3bhaz.s 			page 4


 145:Generated_Source\PSoC5/BackISR.c **** {
 146:Generated_Source\PSoC5/BackISR.c ****     /* Disable this interrupt. */
 147:Generated_Source\PSoC5/BackISR.c ****     BackISR_Disable();
 148:Generated_Source\PSoC5/BackISR.c **** 
 149:Generated_Source\PSoC5/BackISR.c ****     /* Set the ISR to point to the passive one. */
 150:Generated_Source\PSoC5/BackISR.c ****     BackISR_SetVector(&IntDefaultHandler);
 151:Generated_Source\PSoC5/BackISR.c **** }
 152:Generated_Source\PSoC5/BackISR.c **** 
 153:Generated_Source\PSoC5/BackISR.c **** 
 154:Generated_Source\PSoC5/BackISR.c **** /*******************************************************************************
 155:Generated_Source\PSoC5/BackISR.c **** * Function Name: BackISR_Interrupt
 156:Generated_Source\PSoC5/BackISR.c **** ********************************************************************************
 157:Generated_Source\PSoC5/BackISR.c **** *
 158:Generated_Source\PSoC5/BackISR.c **** * Summary:
 159:Generated_Source\PSoC5/BackISR.c **** *   The default Interrupt Service Routine for BackISR.
 160:Generated_Source\PSoC5/BackISR.c **** *
 161:Generated_Source\PSoC5/BackISR.c **** *   Add custom code between the coments to keep the next version of this file
 162:Generated_Source\PSoC5/BackISR.c **** *   from over writting your code.
 163:Generated_Source\PSoC5/BackISR.c **** *
 164:Generated_Source\PSoC5/BackISR.c **** * Parameters:  
 165:Generated_Source\PSoC5/BackISR.c **** *
 166:Generated_Source\PSoC5/BackISR.c **** * Return:
 167:Generated_Source\PSoC5/BackISR.c **** *   None
 168:Generated_Source\PSoC5/BackISR.c **** *
 169:Generated_Source\PSoC5/BackISR.c **** *******************************************************************************/
 170:Generated_Source\PSoC5/BackISR.c **** CY_ISR(BackISR_Interrupt)
 171:Generated_Source\PSoC5/BackISR.c **** {
  28              		.loc 1 171 0
  29              		.cfi_startproc
  30              		@ args = 0, pretend = 0, frame = 8
  31              		@ frame_needed = 0, uses_anonymous_args = 0
 172:Generated_Source\PSoC5/BackISR.c ****     #ifdef BackISR_INTERRUPT_INTERRUPT_CALLBACK
 173:Generated_Source\PSoC5/BackISR.c ****         BackISR_Interrupt_InterruptCallback();
 174:Generated_Source\PSoC5/BackISR.c ****     #endif /* BackISR_INTERRUPT_INTERRUPT_CALLBACK */ 
 175:Generated_Source\PSoC5/BackISR.c **** 
 176:Generated_Source\PSoC5/BackISR.c ****     /*  Place your Interrupt code here. */
 177:Generated_Source\PSoC5/BackISR.c ****     /* `#START BackISR_Interrupt` */
 178:Generated_Source\PSoC5/BackISR.c ****     if( mPos != 1)
  32              		.loc 1 178 0
  33 0000 1A4B     		ldr	r3, .L5
  34 0002 1B68     		ldr	r3, [r3]
  35 0004 012B     		cmp	r3, #1
  36 0006 2FD0     		beq	.L4
 171:Generated_Source\PSoC5/BackISR.c ****     #ifdef BackISR_INTERRUPT_INTERRUPT_CALLBACK
  37              		.loc 1 171 0
  38 0008 00B5     		push	{lr}
  39              		.cfi_def_cfa_offset 4
  40              		.cfi_offset 14, -4
  41 000a 83B0     		sub	sp, sp, #12
  42              		.cfi_def_cfa_offset 16
  43              	.LBB2:
 179:Generated_Source\PSoC5/BackISR.c ****     {
 180:Generated_Source\PSoC5/BackISR.c ****         mPos--;
  44              		.loc 1 180 0
  45 000c 174B     		ldr	r3, .L5
  46 000e 1A68     		ldr	r2, [r3]
  47 0010 013A     		subs	r2, r2, #1
ARM GAS  C:\Users\chascha\AppData\Local\Temp\ccV3bhaz.s 			page 5


  48 0012 1A60     		str	r2, [r3]
 181:Generated_Source\PSoC5/BackISR.c ****         char arr[1];
 182:Generated_Source\PSoC5/BackISR.c ****         sprintf(arr, "%d", mPos);
  49              		.loc 1 182 0
  50 0014 1A68     		ldr	r2, [r3]
  51 0016 1649     		ldr	r1, .L5+4
  52 0018 01A8     		add	r0, sp, #4
  53 001a FFF7FEFF 		bl	sprintf
  54              	.LVL0:
 183:Generated_Source\PSoC5/BackISR.c ****         UART_PutString(" pressed");
  55              		.loc 1 183 0
  56 001e 1548     		ldr	r0, .L5+8
  57 0020 FFF7FEFF 		bl	UART_PutString
  58              	.LVL1:
 184:Generated_Source\PSoC5/BackISR.c ****         UART_PutChar('\r');
  59              		.loc 1 184 0
  60 0024 0D20     		movs	r0, #13
  61 0026 FFF7FEFF 		bl	UART_PutChar
  62              	.LVL2:
 185:Generated_Source\PSoC5/BackISR.c ****         UART_PutChar('\n');
  63              		.loc 1 185 0
  64 002a 0A20     		movs	r0, #10
  65 002c FFF7FEFF 		bl	UART_PutChar
  66              	.LVL3:
 186:Generated_Source\PSoC5/BackISR.c ****         UART_PutString(arr);
  67              		.loc 1 186 0
  68 0030 01A8     		add	r0, sp, #4
  69 0032 FFF7FEFF 		bl	UART_PutString
  70              	.LVL4:
 187:Generated_Source\PSoC5/BackISR.c ****         mFlag = 'b';
  71              		.loc 1 187 0
  72 0036 6222     		movs	r2, #98
  73 0038 0F4B     		ldr	r3, .L5+12
  74 003a 1A70     		strb	r2, [r3]
 188:Generated_Source\PSoC5/BackISR.c ****         MotorISR_Enable();
  75              		.loc 1 188 0
  76 003c FFF7FEFF 		bl	MotorISR_Enable
  77              	.LVL5:
 189:Generated_Source\PSoC5/BackISR.c ****         CyDelay(235 /*change to Time for one quarter turn*/);
  78              		.loc 1 189 0
  79 0040 EB20     		movs	r0, #235
  80 0042 FFF7FEFF 		bl	CyDelay
  81              	.LVL6:
 190:Generated_Source\PSoC5/BackISR.c ****         MotorISR_Disable();
  82              		.loc 1 190 0
  83 0046 FFF7FEFF 		bl	MotorISR_Disable
  84              	.LVL7:
 191:Generated_Source\PSoC5/BackISR.c ****         I2C_Start();
  85              		.loc 1 191 0
  86 004a FFF7FEFF 		bl	I2C_Start
  87              	.LVL8:
 192:Generated_Source\PSoC5/BackISR.c ****         LCD_I2C_setCursor(0,1);
  88              		.loc 1 192 0
  89 004e 0121     		movs	r1, #1
  90 0050 0020     		movs	r0, #0
  91 0052 FFF7FEFF 		bl	LCD_I2C_setCursor
  92              	.LVL9:
ARM GAS  C:\Users\chascha\AppData\Local\Temp\ccV3bhaz.s 			page 6


 193:Generated_Source\PSoC5/BackISR.c ****         LCD_I2C_print("cPos:");
  93              		.loc 1 193 0
  94 0056 0948     		ldr	r0, .L5+16
  95 0058 FFF7FEFF 		bl	LCD_I2C_print
  96              	.LVL10:
 194:Generated_Source\PSoC5/BackISR.c ****         LCD_I2C_print(arr);
  97              		.loc 1 194 0
  98 005c 01A8     		add	r0, sp, #4
  99 005e FFF7FEFF 		bl	LCD_I2C_print
 100              	.LVL11:
 101              	.LBE2:
 195:Generated_Source\PSoC5/BackISR.c **** 
 196:Generated_Source\PSoC5/BackISR.c ****     }    
 197:Generated_Source\PSoC5/BackISR.c ****     /* `#END` */
 198:Generated_Source\PSoC5/BackISR.c **** }
 102              		.loc 1 198 0
 103 0062 03B0     		add	sp, sp, #12
 104              		.cfi_def_cfa_offset 4
 105              		@ sp needed
 106 0064 5DF804FB 		ldr	pc, [sp], #4
 107              	.L4:
 108              		.cfi_def_cfa_offset 0
 109              		.cfi_restore 14
 110 0068 7047     		bx	lr
 111              	.L6:
 112 006a 00BF     		.align	2
 113              	.L5:
 114 006c 00000000 		.word	mPos
 115 0070 00000000 		.word	.LC0
 116 0074 04000000 		.word	.LC1
 117 0078 00000000 		.word	mFlag
 118 007c 10000000 		.word	.LC2
 119              		.cfi_endproc
 120              	.LFE4:
 121              		.size	BackISR_Interrupt, .-BackISR_Interrupt
 122              		.section	.text.BackISR_SetVector,"ax",%progbits
 123              		.align	2
 124              		.global	BackISR_SetVector
 125              		.thumb
 126              		.thumb_func
 127              		.type	BackISR_SetVector, %function
 128              	BackISR_SetVector:
 129              	.LFB5:
 199:Generated_Source\PSoC5/BackISR.c **** 
 200:Generated_Source\PSoC5/BackISR.c **** 
 201:Generated_Source\PSoC5/BackISR.c **** /*******************************************************************************
 202:Generated_Source\PSoC5/BackISR.c **** * Function Name: BackISR_SetVector
 203:Generated_Source\PSoC5/BackISR.c **** ********************************************************************************
 204:Generated_Source\PSoC5/BackISR.c **** *
 205:Generated_Source\PSoC5/BackISR.c **** * Summary:
 206:Generated_Source\PSoC5/BackISR.c **** *   Change the ISR vector for the Interrupt. Note calling BackISR_Start
 207:Generated_Source\PSoC5/BackISR.c **** *   will override any effect this method would have had. To set the vector 
 208:Generated_Source\PSoC5/BackISR.c **** *   before the component has been started use BackISR_StartEx instead.
 209:Generated_Source\PSoC5/BackISR.c **** * 
 210:Generated_Source\PSoC5/BackISR.c **** *   When defining ISR functions, the CY_ISR and CY_ISR_PROTO macros should be 
 211:Generated_Source\PSoC5/BackISR.c **** *   used to provide consistent definition across compilers:
 212:Generated_Source\PSoC5/BackISR.c **** *
ARM GAS  C:\Users\chascha\AppData\Local\Temp\ccV3bhaz.s 			page 7


 213:Generated_Source\PSoC5/BackISR.c **** *   Function definition example:
 214:Generated_Source\PSoC5/BackISR.c **** *   CY_ISR(MyISR)
 215:Generated_Source\PSoC5/BackISR.c **** *   {
 216:Generated_Source\PSoC5/BackISR.c **** *   }
 217:Generated_Source\PSoC5/BackISR.c **** *
 218:Generated_Source\PSoC5/BackISR.c **** *   Function prototype example:
 219:Generated_Source\PSoC5/BackISR.c **** *     CY_ISR_PROTO(MyISR);
 220:Generated_Source\PSoC5/BackISR.c **** *
 221:Generated_Source\PSoC5/BackISR.c **** * Parameters:
 222:Generated_Source\PSoC5/BackISR.c **** *   address: Address of the ISR to set in the interrupt vector table.
 223:Generated_Source\PSoC5/BackISR.c **** *
 224:Generated_Source\PSoC5/BackISR.c **** * Return:
 225:Generated_Source\PSoC5/BackISR.c **** *   None
 226:Generated_Source\PSoC5/BackISR.c **** *
 227:Generated_Source\PSoC5/BackISR.c **** *******************************************************************************/
 228:Generated_Source\PSoC5/BackISR.c **** void BackISR_SetVector(cyisraddress address)
 229:Generated_Source\PSoC5/BackISR.c **** {
 130              		.loc 1 229 0
 131              		.cfi_startproc
 132              		@ args = 0, pretend = 0, frame = 0
 133              		@ frame_needed = 0, uses_anonymous_args = 0
 134              		@ link register save eliminated.
 135              	.LVL12:
 230:Generated_Source\PSoC5/BackISR.c ****     cyisraddress * ramVectorTable;
 231:Generated_Source\PSoC5/BackISR.c **** 
 232:Generated_Source\PSoC5/BackISR.c ****     ramVectorTable = (cyisraddress *) *CYINT_VECT_TABLE;
 136              		.loc 1 232 0
 137 0000 014B     		ldr	r3, .L8
 138 0002 1B68     		ldr	r3, [r3]
 139              	.LVL13:
 233:Generated_Source\PSoC5/BackISR.c **** 
 234:Generated_Source\PSoC5/BackISR.c ****     ramVectorTable[CYINT_IRQ_BASE + (uint32)BackISR__INTC_NUMBER] = address;
 140              		.loc 1 234 0
 141 0004 1864     		str	r0, [r3, #64]
 142 0006 7047     		bx	lr
 143              	.L9:
 144              		.align	2
 145              	.L8:
 146 0008 08ED00E0 		.word	-536810232
 147              		.cfi_endproc
 148              	.LFE5:
 149              		.size	BackISR_SetVector, .-BackISR_SetVector
 150              		.section	.text.BackISR_GetVector,"ax",%progbits
 151              		.align	2
 152              		.global	BackISR_GetVector
 153              		.thumb
 154              		.thumb_func
 155              		.type	BackISR_GetVector, %function
 156              	BackISR_GetVector:
 157              	.LFB6:
 235:Generated_Source\PSoC5/BackISR.c **** }
 236:Generated_Source\PSoC5/BackISR.c **** 
 237:Generated_Source\PSoC5/BackISR.c **** 
 238:Generated_Source\PSoC5/BackISR.c **** /*******************************************************************************
 239:Generated_Source\PSoC5/BackISR.c **** * Function Name: BackISR_GetVector
 240:Generated_Source\PSoC5/BackISR.c **** ********************************************************************************
 241:Generated_Source\PSoC5/BackISR.c **** *
ARM GAS  C:\Users\chascha\AppData\Local\Temp\ccV3bhaz.s 			page 8


 242:Generated_Source\PSoC5/BackISR.c **** * Summary:
 243:Generated_Source\PSoC5/BackISR.c **** *   Gets the "address" of the current ISR vector for the Interrupt.
 244:Generated_Source\PSoC5/BackISR.c **** *
 245:Generated_Source\PSoC5/BackISR.c **** * Parameters:
 246:Generated_Source\PSoC5/BackISR.c **** *   None
 247:Generated_Source\PSoC5/BackISR.c **** *
 248:Generated_Source\PSoC5/BackISR.c **** * Return:
 249:Generated_Source\PSoC5/BackISR.c **** *   Address of the ISR in the interrupt vector table.
 250:Generated_Source\PSoC5/BackISR.c **** *
 251:Generated_Source\PSoC5/BackISR.c **** *******************************************************************************/
 252:Generated_Source\PSoC5/BackISR.c **** cyisraddress BackISR_GetVector(void)
 253:Generated_Source\PSoC5/BackISR.c **** {
 158              		.loc 1 253 0
 159              		.cfi_startproc
 160              		@ args = 0, pretend = 0, frame = 0
 161              		@ frame_needed = 0, uses_anonymous_args = 0
 162              		@ link register save eliminated.
 254:Generated_Source\PSoC5/BackISR.c ****     cyisraddress * ramVectorTable;
 255:Generated_Source\PSoC5/BackISR.c **** 
 256:Generated_Source\PSoC5/BackISR.c ****     ramVectorTable = (cyisraddress *) *CYINT_VECT_TABLE;
 163              		.loc 1 256 0
 164 0000 014B     		ldr	r3, .L11
 165 0002 1B68     		ldr	r3, [r3]
 166              	.LVL14:
 257:Generated_Source\PSoC5/BackISR.c **** 
 258:Generated_Source\PSoC5/BackISR.c ****     return ramVectorTable[CYINT_IRQ_BASE + (uint32)BackISR__INTC_NUMBER];
 259:Generated_Source\PSoC5/BackISR.c **** }
 167              		.loc 1 259 0
 168 0004 186C     		ldr	r0, [r3, #64]
 169 0006 7047     		bx	lr
 170              	.L12:
 171              		.align	2
 172              	.L11:
 173 0008 08ED00E0 		.word	-536810232
 174              		.cfi_endproc
 175              	.LFE6:
 176              		.size	BackISR_GetVector, .-BackISR_GetVector
 177              		.section	.text.BackISR_SetPriority,"ax",%progbits
 178              		.align	2
 179              		.global	BackISR_SetPriority
 180              		.thumb
 181              		.thumb_func
 182              		.type	BackISR_SetPriority, %function
 183              	BackISR_SetPriority:
 184              	.LFB7:
 260:Generated_Source\PSoC5/BackISR.c **** 
 261:Generated_Source\PSoC5/BackISR.c **** 
 262:Generated_Source\PSoC5/BackISR.c **** /*******************************************************************************
 263:Generated_Source\PSoC5/BackISR.c **** * Function Name: BackISR_SetPriority
 264:Generated_Source\PSoC5/BackISR.c **** ********************************************************************************
 265:Generated_Source\PSoC5/BackISR.c **** *
 266:Generated_Source\PSoC5/BackISR.c **** * Summary:
 267:Generated_Source\PSoC5/BackISR.c **** *   Sets the Priority of the Interrupt. 
 268:Generated_Source\PSoC5/BackISR.c **** *
 269:Generated_Source\PSoC5/BackISR.c **** *   Note calling BackISR_Start or BackISR_StartEx will 
 270:Generated_Source\PSoC5/BackISR.c **** *   override any effect this API would have had. This API should only be called
 271:Generated_Source\PSoC5/BackISR.c **** *   after BackISR_Start or BackISR_StartEx has been called. 
ARM GAS  C:\Users\chascha\AppData\Local\Temp\ccV3bhaz.s 			page 9


 272:Generated_Source\PSoC5/BackISR.c **** *   To set the initial priority for the component, use the Design-Wide Resources
 273:Generated_Source\PSoC5/BackISR.c **** *   Interrupt Editor.
 274:Generated_Source\PSoC5/BackISR.c **** *
 275:Generated_Source\PSoC5/BackISR.c **** *   Note This API has no effect on Non-maskable interrupt NMI).
 276:Generated_Source\PSoC5/BackISR.c **** *
 277:Generated_Source\PSoC5/BackISR.c **** * Parameters:
 278:Generated_Source\PSoC5/BackISR.c **** *   priority: Priority of the interrupt, 0 being the highest priority
 279:Generated_Source\PSoC5/BackISR.c **** *             PSoC 3 and PSoC 5LP: Priority is from 0 to 7.
 280:Generated_Source\PSoC5/BackISR.c **** *             PSoC 4: Priority is from 0 to 3.
 281:Generated_Source\PSoC5/BackISR.c **** *
 282:Generated_Source\PSoC5/BackISR.c **** * Return:
 283:Generated_Source\PSoC5/BackISR.c **** *   None
 284:Generated_Source\PSoC5/BackISR.c **** *
 285:Generated_Source\PSoC5/BackISR.c **** *******************************************************************************/
 286:Generated_Source\PSoC5/BackISR.c **** void BackISR_SetPriority(uint8 priority)
 287:Generated_Source\PSoC5/BackISR.c **** {
 185              		.loc 1 287 0
 186              		.cfi_startproc
 187              		@ args = 0, pretend = 0, frame = 0
 188              		@ frame_needed = 0, uses_anonymous_args = 0
 189              		@ link register save eliminated.
 190              	.LVL15:
 288:Generated_Source\PSoC5/BackISR.c ****     *BackISR_INTC_PRIOR = priority << 5;
 191              		.loc 1 288 0
 192 0000 4001     		lsls	r0, r0, #5
 193              	.LVL16:
 194 0002 C0B2     		uxtb	r0, r0
 195 0004 014B     		ldr	r3, .L14
 196 0006 1870     		strb	r0, [r3]
 197 0008 7047     		bx	lr
 198              	.L15:
 199 000a 00BF     		.align	2
 200              	.L14:
 201 000c 00E400E0 		.word	-536812544
 202              		.cfi_endproc
 203              	.LFE7:
 204              		.size	BackISR_SetPriority, .-BackISR_SetPriority
 205              		.section	.text.BackISR_GetPriority,"ax",%progbits
 206              		.align	2
 207              		.global	BackISR_GetPriority
 208              		.thumb
 209              		.thumb_func
 210              		.type	BackISR_GetPriority, %function
 211              	BackISR_GetPriority:
 212              	.LFB8:
 289:Generated_Source\PSoC5/BackISR.c **** }
 290:Generated_Source\PSoC5/BackISR.c **** 
 291:Generated_Source\PSoC5/BackISR.c **** 
 292:Generated_Source\PSoC5/BackISR.c **** /*******************************************************************************
 293:Generated_Source\PSoC5/BackISR.c **** * Function Name: BackISR_GetPriority
 294:Generated_Source\PSoC5/BackISR.c **** ********************************************************************************
 295:Generated_Source\PSoC5/BackISR.c **** *
 296:Generated_Source\PSoC5/BackISR.c **** * Summary:
 297:Generated_Source\PSoC5/BackISR.c **** *   Gets the Priority of the Interrupt.
 298:Generated_Source\PSoC5/BackISR.c **** *
 299:Generated_Source\PSoC5/BackISR.c **** * Parameters:
 300:Generated_Source\PSoC5/BackISR.c **** *   None
ARM GAS  C:\Users\chascha\AppData\Local\Temp\ccV3bhaz.s 			page 10


 301:Generated_Source\PSoC5/BackISR.c **** *
 302:Generated_Source\PSoC5/BackISR.c **** * Return:
 303:Generated_Source\PSoC5/BackISR.c **** *   Priority of the interrupt, 0 being the highest priority
 304:Generated_Source\PSoC5/BackISR.c **** *    PSoC 3 and PSoC 5LP: Priority is from 0 to 7.
 305:Generated_Source\PSoC5/BackISR.c **** *    PSoC 4: Priority is from 0 to 3.
 306:Generated_Source\PSoC5/BackISR.c **** *
 307:Generated_Source\PSoC5/BackISR.c **** *******************************************************************************/
 308:Generated_Source\PSoC5/BackISR.c **** uint8 BackISR_GetPriority(void)
 309:Generated_Source\PSoC5/BackISR.c **** {
 213              		.loc 1 309 0
 214              		.cfi_startproc
 215              		@ args = 0, pretend = 0, frame = 0
 216              		@ frame_needed = 0, uses_anonymous_args = 0
 217              		@ link register save eliminated.
 310:Generated_Source\PSoC5/BackISR.c ****     uint8 priority;
 311:Generated_Source\PSoC5/BackISR.c **** 
 312:Generated_Source\PSoC5/BackISR.c **** 
 313:Generated_Source\PSoC5/BackISR.c ****     priority = *BackISR_INTC_PRIOR >> 5;
 218              		.loc 1 313 0
 219 0000 014B     		ldr	r3, .L17
 220 0002 1878     		ldrb	r0, [r3]	@ zero_extendqisi2
 221              	.LVL17:
 314:Generated_Source\PSoC5/BackISR.c **** 
 315:Generated_Source\PSoC5/BackISR.c ****     return priority;
 316:Generated_Source\PSoC5/BackISR.c **** }
 222              		.loc 1 316 0
 223 0004 4009     		lsrs	r0, r0, #5
 224              	.LVL18:
 225 0006 7047     		bx	lr
 226              	.L18:
 227              		.align	2
 228              	.L17:
 229 0008 00E400E0 		.word	-536812544
 230              		.cfi_endproc
 231              	.LFE8:
 232              		.size	BackISR_GetPriority, .-BackISR_GetPriority
 233              		.section	.text.BackISR_Enable,"ax",%progbits
 234              		.align	2
 235              		.global	BackISR_Enable
 236              		.thumb
 237              		.thumb_func
 238              		.type	BackISR_Enable, %function
 239              	BackISR_Enable:
 240              	.LFB9:
 317:Generated_Source\PSoC5/BackISR.c **** 
 318:Generated_Source\PSoC5/BackISR.c **** 
 319:Generated_Source\PSoC5/BackISR.c **** /*******************************************************************************
 320:Generated_Source\PSoC5/BackISR.c **** * Function Name: BackISR_Enable
 321:Generated_Source\PSoC5/BackISR.c **** ********************************************************************************
 322:Generated_Source\PSoC5/BackISR.c **** *
 323:Generated_Source\PSoC5/BackISR.c **** * Summary:
 324:Generated_Source\PSoC5/BackISR.c **** *   Enables the interrupt to the interrupt controller. Do not call this function
 325:Generated_Source\PSoC5/BackISR.c **** *   unless ISR_Start() has been called or the functionality of the ISR_Start() 
 326:Generated_Source\PSoC5/BackISR.c **** *   function, which sets the vector and the priority, has been called.
 327:Generated_Source\PSoC5/BackISR.c **** *
 328:Generated_Source\PSoC5/BackISR.c **** * Parameters:
 329:Generated_Source\PSoC5/BackISR.c **** *   None
ARM GAS  C:\Users\chascha\AppData\Local\Temp\ccV3bhaz.s 			page 11


 330:Generated_Source\PSoC5/BackISR.c **** *
 331:Generated_Source\PSoC5/BackISR.c **** * Return:
 332:Generated_Source\PSoC5/BackISR.c **** *   None
 333:Generated_Source\PSoC5/BackISR.c **** *
 334:Generated_Source\PSoC5/BackISR.c **** *******************************************************************************/
 335:Generated_Source\PSoC5/BackISR.c **** void BackISR_Enable(void)
 336:Generated_Source\PSoC5/BackISR.c **** {
 241              		.loc 1 336 0
 242              		.cfi_startproc
 243              		@ args = 0, pretend = 0, frame = 0
 244              		@ frame_needed = 0, uses_anonymous_args = 0
 245              		@ link register save eliminated.
 337:Generated_Source\PSoC5/BackISR.c ****     /* Enable the general interrupt. */
 338:Generated_Source\PSoC5/BackISR.c ****     *BackISR_INTC_SET_EN = BackISR__INTC_MASK;
 246              		.loc 1 338 0
 247 0000 0122     		movs	r2, #1
 248 0002 014B     		ldr	r3, .L20
 249 0004 1A60     		str	r2, [r3]
 250 0006 7047     		bx	lr
 251              	.L21:
 252              		.align	2
 253              	.L20:
 254 0008 00E100E0 		.word	-536813312
 255              		.cfi_endproc
 256              	.LFE9:
 257              		.size	BackISR_Enable, .-BackISR_Enable
 258              		.section	.text.BackISR_GetState,"ax",%progbits
 259              		.align	2
 260              		.global	BackISR_GetState
 261              		.thumb
 262              		.thumb_func
 263              		.type	BackISR_GetState, %function
 264              	BackISR_GetState:
 265              	.LFB10:
 339:Generated_Source\PSoC5/BackISR.c **** }
 340:Generated_Source\PSoC5/BackISR.c **** 
 341:Generated_Source\PSoC5/BackISR.c **** 
 342:Generated_Source\PSoC5/BackISR.c **** /*******************************************************************************
 343:Generated_Source\PSoC5/BackISR.c **** * Function Name: BackISR_GetState
 344:Generated_Source\PSoC5/BackISR.c **** ********************************************************************************
 345:Generated_Source\PSoC5/BackISR.c **** *
 346:Generated_Source\PSoC5/BackISR.c **** * Summary:
 347:Generated_Source\PSoC5/BackISR.c **** *   Gets the state (enabled, disabled) of the Interrupt.
 348:Generated_Source\PSoC5/BackISR.c **** *
 349:Generated_Source\PSoC5/BackISR.c **** * Parameters:
 350:Generated_Source\PSoC5/BackISR.c **** *   None
 351:Generated_Source\PSoC5/BackISR.c **** *
 352:Generated_Source\PSoC5/BackISR.c **** * Return:
 353:Generated_Source\PSoC5/BackISR.c **** *   1 if enabled, 0 if disabled.
 354:Generated_Source\PSoC5/BackISR.c **** *
 355:Generated_Source\PSoC5/BackISR.c **** *******************************************************************************/
 356:Generated_Source\PSoC5/BackISR.c **** uint8 BackISR_GetState(void)
 357:Generated_Source\PSoC5/BackISR.c **** {
 266              		.loc 1 357 0
 267              		.cfi_startproc
 268              		@ args = 0, pretend = 0, frame = 0
 269              		@ frame_needed = 0, uses_anonymous_args = 0
ARM GAS  C:\Users\chascha\AppData\Local\Temp\ccV3bhaz.s 			page 12


 270              		@ link register save eliminated.
 358:Generated_Source\PSoC5/BackISR.c ****     /* Get the state of the general interrupt. */
 359:Generated_Source\PSoC5/BackISR.c ****     return ((*BackISR_INTC_SET_EN & (uint32)BackISR__INTC_MASK) != 0u) ? 1u:0u;
 271              		.loc 1 359 0
 272 0000 024B     		ldr	r3, .L23
 273 0002 1868     		ldr	r0, [r3]
 360:Generated_Source\PSoC5/BackISR.c **** }
 274              		.loc 1 360 0
 275 0004 00F00100 		and	r0, r0, #1
 276 0008 7047     		bx	lr
 277              	.L24:
 278 000a 00BF     		.align	2
 279              	.L23:
 280 000c 00E100E0 		.word	-536813312
 281              		.cfi_endproc
 282              	.LFE10:
 283              		.size	BackISR_GetState, .-BackISR_GetState
 284              		.section	.text.BackISR_Disable,"ax",%progbits
 285              		.align	2
 286              		.global	BackISR_Disable
 287              		.thumb
 288              		.thumb_func
 289              		.type	BackISR_Disable, %function
 290              	BackISR_Disable:
 291              	.LFB11:
 361:Generated_Source\PSoC5/BackISR.c **** 
 362:Generated_Source\PSoC5/BackISR.c **** 
 363:Generated_Source\PSoC5/BackISR.c **** /*******************************************************************************
 364:Generated_Source\PSoC5/BackISR.c **** * Function Name: BackISR_Disable
 365:Generated_Source\PSoC5/BackISR.c **** ********************************************************************************
 366:Generated_Source\PSoC5/BackISR.c **** *
 367:Generated_Source\PSoC5/BackISR.c **** * Summary:
 368:Generated_Source\PSoC5/BackISR.c **** *   Disables the Interrupt in the interrupt controller.
 369:Generated_Source\PSoC5/BackISR.c **** *
 370:Generated_Source\PSoC5/BackISR.c **** * Parameters:
 371:Generated_Source\PSoC5/BackISR.c **** *   None
 372:Generated_Source\PSoC5/BackISR.c **** *
 373:Generated_Source\PSoC5/BackISR.c **** * Return:
 374:Generated_Source\PSoC5/BackISR.c **** *   None
 375:Generated_Source\PSoC5/BackISR.c **** *
 376:Generated_Source\PSoC5/BackISR.c **** *******************************************************************************/
 377:Generated_Source\PSoC5/BackISR.c **** void BackISR_Disable(void)
 378:Generated_Source\PSoC5/BackISR.c **** {
 292              		.loc 1 378 0
 293              		.cfi_startproc
 294              		@ args = 0, pretend = 0, frame = 0
 295              		@ frame_needed = 0, uses_anonymous_args = 0
 296              		@ link register save eliminated.
 379:Generated_Source\PSoC5/BackISR.c ****     /* Disable the general interrupt. */
 380:Generated_Source\PSoC5/BackISR.c ****     *BackISR_INTC_CLR_EN = BackISR__INTC_MASK;
 297              		.loc 1 380 0
 298 0000 0122     		movs	r2, #1
 299 0002 014B     		ldr	r3, .L26
 300 0004 1A60     		str	r2, [r3]
 301 0006 7047     		bx	lr
 302              	.L27:
 303              		.align	2
ARM GAS  C:\Users\chascha\AppData\Local\Temp\ccV3bhaz.s 			page 13


 304              	.L26:
 305 0008 80E100E0 		.word	-536813184
 306              		.cfi_endproc
 307              	.LFE11:
 308              		.size	BackISR_Disable, .-BackISR_Disable
 309              		.section	.text.BackISR_Start,"ax",%progbits
 310              		.align	2
 311              		.global	BackISR_Start
 312              		.thumb
 313              		.thumb_func
 314              		.type	BackISR_Start, %function
 315              	BackISR_Start:
 316              	.LFB1:
  72:Generated_Source\PSoC5/BackISR.c ****     /* For all we know the interrupt is active. */
 317              		.loc 1 72 0
 318              		.cfi_startproc
 319              		@ args = 0, pretend = 0, frame = 0
 320              		@ frame_needed = 0, uses_anonymous_args = 0
 321 0000 08B5     		push	{r3, lr}
 322              		.cfi_def_cfa_offset 8
 323              		.cfi_offset 3, -8
 324              		.cfi_offset 14, -4
  74:Generated_Source\PSoC5/BackISR.c **** 
 325              		.loc 1 74 0
 326 0002 FFF7FEFF 		bl	BackISR_Disable
 327              	.LVL19:
  77:Generated_Source\PSoC5/BackISR.c **** 
 328              		.loc 1 77 0
 329 0006 0448     		ldr	r0, .L30
 330 0008 FFF7FEFF 		bl	BackISR_SetVector
 331              	.LVL20:
  80:Generated_Source\PSoC5/BackISR.c **** 
 332              		.loc 1 80 0
 333 000c 0720     		movs	r0, #7
 334 000e FFF7FEFF 		bl	BackISR_SetPriority
 335              	.LVL21:
  83:Generated_Source\PSoC5/BackISR.c **** }
 336              		.loc 1 83 0
 337 0012 FFF7FEFF 		bl	BackISR_Enable
 338              	.LVL22:
 339 0016 08BD     		pop	{r3, pc}
 340              	.L31:
 341              		.align	2
 342              	.L30:
 343 0018 00000000 		.word	BackISR_Interrupt
 344              		.cfi_endproc
 345              	.LFE1:
 346              		.size	BackISR_Start, .-BackISR_Start
 347              		.section	.text.BackISR_StartEx,"ax",%progbits
 348              		.align	2
 349              		.global	BackISR_StartEx
 350              		.thumb
 351              		.thumb_func
 352              		.type	BackISR_StartEx, %function
 353              	BackISR_StartEx:
 354              	.LFB2:
 115:Generated_Source\PSoC5/BackISR.c ****     /* For all we know the interrupt is active. */
ARM GAS  C:\Users\chascha\AppData\Local\Temp\ccV3bhaz.s 			page 14


 355              		.loc 1 115 0
 356              		.cfi_startproc
 357              		@ args = 0, pretend = 0, frame = 0
 358              		@ frame_needed = 0, uses_anonymous_args = 0
 359              	.LVL23:
 360 0000 10B5     		push	{r4, lr}
 361              		.cfi_def_cfa_offset 8
 362              		.cfi_offset 4, -8
 363              		.cfi_offset 14, -4
 364 0002 0446     		mov	r4, r0
 117:Generated_Source\PSoC5/BackISR.c **** 
 365              		.loc 1 117 0
 366 0004 FFF7FEFF 		bl	BackISR_Disable
 367              	.LVL24:
 120:Generated_Source\PSoC5/BackISR.c **** 
 368              		.loc 1 120 0
 369 0008 2046     		mov	r0, r4
 370 000a FFF7FEFF 		bl	BackISR_SetVector
 371              	.LVL25:
 123:Generated_Source\PSoC5/BackISR.c **** 
 372              		.loc 1 123 0
 373 000e 0720     		movs	r0, #7
 374 0010 FFF7FEFF 		bl	BackISR_SetPriority
 375              	.LVL26:
 126:Generated_Source\PSoC5/BackISR.c **** }
 376              		.loc 1 126 0
 377 0014 FFF7FEFF 		bl	BackISR_Enable
 378              	.LVL27:
 379 0018 10BD     		pop	{r4, pc}
 380              		.cfi_endproc
 381              	.LFE2:
 382              		.size	BackISR_StartEx, .-BackISR_StartEx
 383 001a 00BF     		.section	.text.BackISR_Stop,"ax",%progbits
 384              		.align	2
 385              		.global	BackISR_Stop
 386              		.thumb
 387              		.thumb_func
 388              		.type	BackISR_Stop, %function
 389              	BackISR_Stop:
 390              	.LFB3:
 145:Generated_Source\PSoC5/BackISR.c ****     /* Disable this interrupt. */
 391              		.loc 1 145 0
 392              		.cfi_startproc
 393              		@ args = 0, pretend = 0, frame = 0
 394              		@ frame_needed = 0, uses_anonymous_args = 0
 395 0000 08B5     		push	{r3, lr}
 396              		.cfi_def_cfa_offset 8
 397              		.cfi_offset 3, -8
 398              		.cfi_offset 14, -4
 147:Generated_Source\PSoC5/BackISR.c **** 
 399              		.loc 1 147 0
 400 0002 FFF7FEFF 		bl	BackISR_Disable
 401              	.LVL28:
 150:Generated_Source\PSoC5/BackISR.c **** }
 402              		.loc 1 150 0
 403 0006 0248     		ldr	r0, .L36
 404 0008 FFF7FEFF 		bl	BackISR_SetVector
ARM GAS  C:\Users\chascha\AppData\Local\Temp\ccV3bhaz.s 			page 15


 405              	.LVL29:
 406 000c 08BD     		pop	{r3, pc}
 407              	.L37:
 408 000e 00BF     		.align	2
 409              	.L36:
 410 0010 00000000 		.word	IntDefaultHandler
 411              		.cfi_endproc
 412              	.LFE3:
 413              		.size	BackISR_Stop, .-BackISR_Stop
 414              		.section	.text.BackISR_SetPending,"ax",%progbits
 415              		.align	2
 416              		.global	BackISR_SetPending
 417              		.thumb
 418              		.thumb_func
 419              		.type	BackISR_SetPending, %function
 420              	BackISR_SetPending:
 421              	.LFB12:
 381:Generated_Source\PSoC5/BackISR.c **** }
 382:Generated_Source\PSoC5/BackISR.c **** 
 383:Generated_Source\PSoC5/BackISR.c **** 
 384:Generated_Source\PSoC5/BackISR.c **** /*******************************************************************************
 385:Generated_Source\PSoC5/BackISR.c **** * Function Name: BackISR_SetPending
 386:Generated_Source\PSoC5/BackISR.c **** ********************************************************************************
 387:Generated_Source\PSoC5/BackISR.c **** *
 388:Generated_Source\PSoC5/BackISR.c **** * Summary:
 389:Generated_Source\PSoC5/BackISR.c **** *   Causes the Interrupt to enter the pending state, a software method of
 390:Generated_Source\PSoC5/BackISR.c **** *   generating the interrupt.
 391:Generated_Source\PSoC5/BackISR.c **** *
 392:Generated_Source\PSoC5/BackISR.c **** * Parameters:
 393:Generated_Source\PSoC5/BackISR.c **** *   None
 394:Generated_Source\PSoC5/BackISR.c **** *
 395:Generated_Source\PSoC5/BackISR.c **** * Return:
 396:Generated_Source\PSoC5/BackISR.c **** *   None
 397:Generated_Source\PSoC5/BackISR.c **** *
 398:Generated_Source\PSoC5/BackISR.c **** * Side Effects:
 399:Generated_Source\PSoC5/BackISR.c **** *   If interrupts are enabled and the interrupt is set up properly, the ISR is
 400:Generated_Source\PSoC5/BackISR.c **** *   entered (depending on the priority of this interrupt and other pending 
 401:Generated_Source\PSoC5/BackISR.c **** *   interrupts).
 402:Generated_Source\PSoC5/BackISR.c **** *
 403:Generated_Source\PSoC5/BackISR.c **** *******************************************************************************/
 404:Generated_Source\PSoC5/BackISR.c **** void BackISR_SetPending(void)
 405:Generated_Source\PSoC5/BackISR.c **** {
 422              		.loc 1 405 0
 423              		.cfi_startproc
 424              		@ args = 0, pretend = 0, frame = 0
 425              		@ frame_needed = 0, uses_anonymous_args = 0
 426              		@ link register save eliminated.
 406:Generated_Source\PSoC5/BackISR.c ****     *BackISR_INTC_SET_PD = BackISR__INTC_MASK;
 427              		.loc 1 406 0
 428 0000 0122     		movs	r2, #1
 429 0002 014B     		ldr	r3, .L39
 430 0004 1A60     		str	r2, [r3]
 431 0006 7047     		bx	lr
 432              	.L40:
 433              		.align	2
 434              	.L39:
 435 0008 00E200E0 		.word	-536813056
ARM GAS  C:\Users\chascha\AppData\Local\Temp\ccV3bhaz.s 			page 16


 436              		.cfi_endproc
 437              	.LFE12:
 438              		.size	BackISR_SetPending, .-BackISR_SetPending
 439              		.section	.text.BackISR_ClearPending,"ax",%progbits
 440              		.align	2
 441              		.global	BackISR_ClearPending
 442              		.thumb
 443              		.thumb_func
 444              		.type	BackISR_ClearPending, %function
 445              	BackISR_ClearPending:
 446              	.LFB13:
 407:Generated_Source\PSoC5/BackISR.c **** }
 408:Generated_Source\PSoC5/BackISR.c **** 
 409:Generated_Source\PSoC5/BackISR.c **** 
 410:Generated_Source\PSoC5/BackISR.c **** /*******************************************************************************
 411:Generated_Source\PSoC5/BackISR.c **** * Function Name: BackISR_ClearPending
 412:Generated_Source\PSoC5/BackISR.c **** ********************************************************************************
 413:Generated_Source\PSoC5/BackISR.c **** *
 414:Generated_Source\PSoC5/BackISR.c **** * Summary:
 415:Generated_Source\PSoC5/BackISR.c **** *   Clears a pending interrupt in the interrupt controller.
 416:Generated_Source\PSoC5/BackISR.c **** *
 417:Generated_Source\PSoC5/BackISR.c **** *   Note Some interrupt sources are clear-on-read and require the block 
 418:Generated_Source\PSoC5/BackISR.c **** *   interrupt/status register to be read/cleared with the appropriate block API 
 419:Generated_Source\PSoC5/BackISR.c **** *   (GPIO, UART, and so on). Otherwise the ISR will continue to remain in 
 420:Generated_Source\PSoC5/BackISR.c **** *   pending state even though the interrupt itself is cleared using this API.
 421:Generated_Source\PSoC5/BackISR.c **** *
 422:Generated_Source\PSoC5/BackISR.c **** * Parameters:
 423:Generated_Source\PSoC5/BackISR.c **** *   None
 424:Generated_Source\PSoC5/BackISR.c **** *
 425:Generated_Source\PSoC5/BackISR.c **** * Return:
 426:Generated_Source\PSoC5/BackISR.c **** *   None
 427:Generated_Source\PSoC5/BackISR.c **** *
 428:Generated_Source\PSoC5/BackISR.c **** *******************************************************************************/
 429:Generated_Source\PSoC5/BackISR.c **** void BackISR_ClearPending(void)
 430:Generated_Source\PSoC5/BackISR.c **** {
 447              		.loc 1 430 0
 448              		.cfi_startproc
 449              		@ args = 0, pretend = 0, frame = 0
 450              		@ frame_needed = 0, uses_anonymous_args = 0
 451              		@ link register save eliminated.
 431:Generated_Source\PSoC5/BackISR.c ****     *BackISR_INTC_CLR_PD = BackISR__INTC_MASK;
 452              		.loc 1 431 0
 453 0000 0122     		movs	r2, #1
 454 0002 014B     		ldr	r3, .L42
 455 0004 1A60     		str	r2, [r3]
 456 0006 7047     		bx	lr
 457              	.L43:
 458              		.align	2
 459              	.L42:
 460 0008 80E200E0 		.word	-536812928
 461              		.cfi_endproc
 462              	.LFE13:
 463              		.size	BackISR_ClearPending, .-BackISR_ClearPending
 464              		.comm	buttonID,1,1
 465              		.comm	mFlag,1,1
 466              		.comm	mPos,4,4
 467              		.section	.rodata.str1.4,"aMS",%progbits,1
ARM GAS  C:\Users\chascha\AppData\Local\Temp\ccV3bhaz.s 			page 17


 468              		.align	2
 469              	.LC0:
 470 0000 256400   		.ascii	"%d\000"
 471 0003 00       		.space	1
 472              	.LC1:
 473 0004 20707265 		.ascii	" pressed\000"
 473      73736564 
 473      00
 474 000d 000000   		.space	3
 475              	.LC2:
 476 0010 63506F73 		.ascii	"cPos:\000"
 476      3A00
 477              		.text
 478              	.Letext0:
 479              		.file 2 "Generated_Source\\PSoC5/cytypes.h"
 480              		.file 3 "c:\\program files (x86)\\cypress\\psoc creator\\4.2\\psoc creator\\import\\gnu\\arm\\5.4.
 481              		.file 4 "Generated_Source\\PSoC5\\UART.h"
 482              		.file 5 "Generated_Source\\PSoC5\\MotorISR.h"
 483              		.file 6 "Generated_Source\\PSoC5/CyLib.h"
 484              		.file 7 "Generated_Source\\PSoC5\\I2C.h"
 485              		.file 8 "Generated_Source\\PSoC5\\LCD_I2C_FUNCS.h"