ARM GAS  C:\Users\chascha\AppData\Local\Temp\cc2Dah4a.s 			page 1


   1              		.syntax unified
   2              		.cpu cortex-m3
   3              		.fpu softvfp
   4              		.eabi_attribute 20, 1
   5              		.eabi_attribute 21, 1
   6              		.eabi_attribute 23, 3
   7              		.eabi_attribute 24, 1
   8              		.eabi_attribute 25, 1
   9              		.eabi_attribute 26, 1
  10              		.eabi_attribute 30, 1
  11              		.eabi_attribute 34, 1
  12              		.eabi_attribute 18, 4
  13              		.thumb
  14              		.syntax unified
  15              		.file	"CycleISR.c"
  16              		.text
  17              	.Ltext0:
  18              		.cfi_sections	.debug_frame
  19              		.section	.text.CycleISR_Interrupt,"ax",%progbits
  20              		.align	2
  21              		.global	CycleISR_Interrupt
  22              		.thumb
  23              		.thumb_func
  24              		.type	CycleISR_Interrupt, %function
  25              	CycleISR_Interrupt:
  26              	.LFB4:
  27              		.file 1 "Generated_Source\\PSoC5\\CycleISR.c"
   1:Generated_Source\PSoC5/CycleISR.c **** /*******************************************************************************
   2:Generated_Source\PSoC5/CycleISR.c **** * File Name: CycleISR.c  
   3:Generated_Source\PSoC5/CycleISR.c **** * Version 1.71
   4:Generated_Source\PSoC5/CycleISR.c **** *
   5:Generated_Source\PSoC5/CycleISR.c **** *  Description:
   6:Generated_Source\PSoC5/CycleISR.c **** *   API for controlling the state of an interrupt.
   7:Generated_Source\PSoC5/CycleISR.c **** *
   8:Generated_Source\PSoC5/CycleISR.c **** *
   9:Generated_Source\PSoC5/CycleISR.c **** *  Note:
  10:Generated_Source\PSoC5/CycleISR.c **** *
  11:Generated_Source\PSoC5/CycleISR.c **** ********************************************************************************
  12:Generated_Source\PSoC5/CycleISR.c **** * Copyright 2008-2015, Cypress Semiconductor Corporation.  All rights reserved.
  13:Generated_Source\PSoC5/CycleISR.c **** * You may use this file only in accordance with the license, terms, conditions, 
  14:Generated_Source\PSoC5/CycleISR.c **** * disclaimers, and limitations in the end user license agreement accompanying 
  15:Generated_Source\PSoC5/CycleISR.c **** * the software package with which this file was provided.
  16:Generated_Source\PSoC5/CycleISR.c **** *******************************************************************************/
  17:Generated_Source\PSoC5/CycleISR.c **** 
  18:Generated_Source\PSoC5/CycleISR.c **** 
  19:Generated_Source\PSoC5/CycleISR.c **** #include <cydevice_trm.h>
  20:Generated_Source\PSoC5/CycleISR.c **** #include <CyLib.h>
  21:Generated_Source\PSoC5/CycleISR.c **** #include <CycleISR.h>
  22:Generated_Source\PSoC5/CycleISR.c **** #include "cyapicallbacks.h"
  23:Generated_Source\PSoC5/CycleISR.c **** 
  24:Generated_Source\PSoC5/CycleISR.c **** #if !defined(CycleISR__REMOVED) /* Check for removal by optimization */
  25:Generated_Source\PSoC5/CycleISR.c **** 
  26:Generated_Source\PSoC5/CycleISR.c **** /*******************************************************************************
  27:Generated_Source\PSoC5/CycleISR.c **** *  Place your includes, defines and code here 
  28:Generated_Source\PSoC5/CycleISR.c **** ********************************************************************************/
  29:Generated_Source\PSoC5/CycleISR.c **** /* `#START CycleISR_intc` */
  30:Generated_Source\PSoC5/CycleISR.c ****     volatile uint8 FPSID;
ARM GAS  C:\Users\chascha\AppData\Local\Temp\cc2Dah4a.s 			page 2


  31:Generated_Source\PSoC5/CycleISR.c ****     volatile uint8 FPSmPos;
  32:Generated_Source\PSoC5/CycleISR.c ****     volatile unsigned int mPos;
  33:Generated_Source\PSoC5/CycleISR.c ****     volatile char mFlag;
  34:Generated_Source\PSoC5/CycleISR.c ****     uint8 addre = 0x00;
  35:Generated_Source\PSoC5/CycleISR.c ****     uint8 readPos;
  36:Generated_Source\PSoC5/CycleISR.c ****     volatile uint8 buttonID;
  37:Generated_Source\PSoC5/CycleISR.c ****     
  38:Generated_Source\PSoC5/CycleISR.c ****     #include "stdio.h"
  39:Generated_Source\PSoC5/CycleISR.c ****     #include "UART.h"
  40:Generated_Source\PSoC5/CycleISR.c ****     #include "I2C.h"
  41:Generated_Source\PSoC5/CycleISR.c ****     #include "LCD_I2C_FUNCS.h"
  42:Generated_Source\PSoC5/CycleISR.c **** 
  43:Generated_Source\PSoC5/CycleISR.c ****     
  44:Generated_Source\PSoC5/CycleISR.c ****    
  45:Generated_Source\PSoC5/CycleISR.c **** /* `#END` */
  46:Generated_Source\PSoC5/CycleISR.c **** 
  47:Generated_Source\PSoC5/CycleISR.c **** #ifndef CYINT_IRQ_BASE
  48:Generated_Source\PSoC5/CycleISR.c **** #define CYINT_IRQ_BASE      16
  49:Generated_Source\PSoC5/CycleISR.c **** #endif /* CYINT_IRQ_BASE */
  50:Generated_Source\PSoC5/CycleISR.c **** #ifndef CYINT_VECT_TABLE
  51:Generated_Source\PSoC5/CycleISR.c **** #define CYINT_VECT_TABLE    ((cyisraddress **) CYREG_NVIC_VECT_OFFSET)
  52:Generated_Source\PSoC5/CycleISR.c **** #endif /* CYINT_VECT_TABLE */
  53:Generated_Source\PSoC5/CycleISR.c **** 
  54:Generated_Source\PSoC5/CycleISR.c **** /* Declared in startup, used to set unused interrupts to. */
  55:Generated_Source\PSoC5/CycleISR.c **** CY_ISR_PROTO(IntDefaultHandler);
  56:Generated_Source\PSoC5/CycleISR.c **** 
  57:Generated_Source\PSoC5/CycleISR.c **** 
  58:Generated_Source\PSoC5/CycleISR.c **** /*******************************************************************************
  59:Generated_Source\PSoC5/CycleISR.c **** * Function Name: CycleISR_Start
  60:Generated_Source\PSoC5/CycleISR.c **** ********************************************************************************
  61:Generated_Source\PSoC5/CycleISR.c **** *
  62:Generated_Source\PSoC5/CycleISR.c **** * Summary:
  63:Generated_Source\PSoC5/CycleISR.c **** *  Set up the interrupt and enable it. This function disables the interrupt, 
  64:Generated_Source\PSoC5/CycleISR.c **** *  sets the default interrupt vector, sets the priority from the value in the
  65:Generated_Source\PSoC5/CycleISR.c **** *  Design Wide Resources Interrupt Editor, then enables the interrupt to the 
  66:Generated_Source\PSoC5/CycleISR.c **** *  interrupt controller.
  67:Generated_Source\PSoC5/CycleISR.c **** *
  68:Generated_Source\PSoC5/CycleISR.c **** * Parameters:  
  69:Generated_Source\PSoC5/CycleISR.c **** *   None
  70:Generated_Source\PSoC5/CycleISR.c **** *
  71:Generated_Source\PSoC5/CycleISR.c **** * Return:
  72:Generated_Source\PSoC5/CycleISR.c **** *   None
  73:Generated_Source\PSoC5/CycleISR.c **** *
  74:Generated_Source\PSoC5/CycleISR.c **** *******************************************************************************/
  75:Generated_Source\PSoC5/CycleISR.c **** void CycleISR_Start(void)
  76:Generated_Source\PSoC5/CycleISR.c **** {
  77:Generated_Source\PSoC5/CycleISR.c ****     /* For all we know the interrupt is active. */
  78:Generated_Source\PSoC5/CycleISR.c ****     CycleISR_Disable();
  79:Generated_Source\PSoC5/CycleISR.c **** 
  80:Generated_Source\PSoC5/CycleISR.c ****     /* Set the ISR to point to the CycleISR Interrupt. */
  81:Generated_Source\PSoC5/CycleISR.c ****     CycleISR_SetVector(&CycleISR_Interrupt);
  82:Generated_Source\PSoC5/CycleISR.c **** 
  83:Generated_Source\PSoC5/CycleISR.c ****     /* Set the priority. */
  84:Generated_Source\PSoC5/CycleISR.c ****     CycleISR_SetPriority((uint8)CycleISR_INTC_PRIOR_NUMBER);
  85:Generated_Source\PSoC5/CycleISR.c **** 
  86:Generated_Source\PSoC5/CycleISR.c ****     /* Enable it. */
  87:Generated_Source\PSoC5/CycleISR.c ****     CycleISR_Enable();
ARM GAS  C:\Users\chascha\AppData\Local\Temp\cc2Dah4a.s 			page 3


  88:Generated_Source\PSoC5/CycleISR.c **** }
  89:Generated_Source\PSoC5/CycleISR.c **** 
  90:Generated_Source\PSoC5/CycleISR.c **** 
  91:Generated_Source\PSoC5/CycleISR.c **** /*******************************************************************************
  92:Generated_Source\PSoC5/CycleISR.c **** * Function Name: CycleISR_StartEx
  93:Generated_Source\PSoC5/CycleISR.c **** ********************************************************************************
  94:Generated_Source\PSoC5/CycleISR.c **** *
  95:Generated_Source\PSoC5/CycleISR.c **** * Summary:
  96:Generated_Source\PSoC5/CycleISR.c **** *  Sets up the interrupt and enables it. This function disables the interrupt,
  97:Generated_Source\PSoC5/CycleISR.c **** *  sets the interrupt vector based on the address passed in, sets the priority 
  98:Generated_Source\PSoC5/CycleISR.c **** *  from the value in the Design Wide Resources Interrupt Editor, then enables 
  99:Generated_Source\PSoC5/CycleISR.c **** *  the interrupt to the interrupt controller.
 100:Generated_Source\PSoC5/CycleISR.c **** *  
 101:Generated_Source\PSoC5/CycleISR.c **** *  When defining ISR functions, the CY_ISR and CY_ISR_PROTO macros should be 
 102:Generated_Source\PSoC5/CycleISR.c **** *  used to provide consistent definition across compilers:
 103:Generated_Source\PSoC5/CycleISR.c **** *  
 104:Generated_Source\PSoC5/CycleISR.c **** *  Function definition example:
 105:Generated_Source\PSoC5/CycleISR.c **** *   CY_ISR(MyISR)
 106:Generated_Source\PSoC5/CycleISR.c **** *   {
 107:Generated_Source\PSoC5/CycleISR.c **** *   }
 108:Generated_Source\PSoC5/CycleISR.c **** *   Function prototype example:
 109:Generated_Source\PSoC5/CycleISR.c **** *   CY_ISR_PROTO(MyISR);
 110:Generated_Source\PSoC5/CycleISR.c **** *
 111:Generated_Source\PSoC5/CycleISR.c **** * Parameters:  
 112:Generated_Source\PSoC5/CycleISR.c **** *   address: Address of the ISR to set in the interrupt vector table.
 113:Generated_Source\PSoC5/CycleISR.c **** *
 114:Generated_Source\PSoC5/CycleISR.c **** * Return:
 115:Generated_Source\PSoC5/CycleISR.c **** *   None
 116:Generated_Source\PSoC5/CycleISR.c **** *
 117:Generated_Source\PSoC5/CycleISR.c **** *******************************************************************************/
 118:Generated_Source\PSoC5/CycleISR.c **** void CycleISR_StartEx(cyisraddress address)
 119:Generated_Source\PSoC5/CycleISR.c **** {
 120:Generated_Source\PSoC5/CycleISR.c ****     /* For all we know the interrupt is active. */
 121:Generated_Source\PSoC5/CycleISR.c ****     CycleISR_Disable();
 122:Generated_Source\PSoC5/CycleISR.c **** 
 123:Generated_Source\PSoC5/CycleISR.c ****     /* Set the ISR to point to the CycleISR Interrupt. */
 124:Generated_Source\PSoC5/CycleISR.c ****     CycleISR_SetVector(address);
 125:Generated_Source\PSoC5/CycleISR.c **** 
 126:Generated_Source\PSoC5/CycleISR.c ****     /* Set the priority. */
 127:Generated_Source\PSoC5/CycleISR.c ****     CycleISR_SetPriority((uint8)CycleISR_INTC_PRIOR_NUMBER);
 128:Generated_Source\PSoC5/CycleISR.c **** 
 129:Generated_Source\PSoC5/CycleISR.c ****     /* Enable it. */
 130:Generated_Source\PSoC5/CycleISR.c ****     CycleISR_Enable();
 131:Generated_Source\PSoC5/CycleISR.c **** }
 132:Generated_Source\PSoC5/CycleISR.c **** 
 133:Generated_Source\PSoC5/CycleISR.c **** 
 134:Generated_Source\PSoC5/CycleISR.c **** /*******************************************************************************
 135:Generated_Source\PSoC5/CycleISR.c **** * Function Name: CycleISR_Stop
 136:Generated_Source\PSoC5/CycleISR.c **** ********************************************************************************
 137:Generated_Source\PSoC5/CycleISR.c **** *
 138:Generated_Source\PSoC5/CycleISR.c **** * Summary:
 139:Generated_Source\PSoC5/CycleISR.c **** *   Disables and removes the interrupt.
 140:Generated_Source\PSoC5/CycleISR.c **** *
 141:Generated_Source\PSoC5/CycleISR.c **** * Parameters:  
 142:Generated_Source\PSoC5/CycleISR.c **** *   None
 143:Generated_Source\PSoC5/CycleISR.c **** *
 144:Generated_Source\PSoC5/CycleISR.c **** * Return:
ARM GAS  C:\Users\chascha\AppData\Local\Temp\cc2Dah4a.s 			page 4


 145:Generated_Source\PSoC5/CycleISR.c **** *   None
 146:Generated_Source\PSoC5/CycleISR.c **** *
 147:Generated_Source\PSoC5/CycleISR.c **** *******************************************************************************/
 148:Generated_Source\PSoC5/CycleISR.c **** void CycleISR_Stop(void)
 149:Generated_Source\PSoC5/CycleISR.c **** {
 150:Generated_Source\PSoC5/CycleISR.c ****     /* Disable this interrupt. */
 151:Generated_Source\PSoC5/CycleISR.c ****     CycleISR_Disable();
 152:Generated_Source\PSoC5/CycleISR.c **** 
 153:Generated_Source\PSoC5/CycleISR.c ****     /* Set the ISR to point to the passive one. */
 154:Generated_Source\PSoC5/CycleISR.c ****     CycleISR_SetVector(&IntDefaultHandler);
 155:Generated_Source\PSoC5/CycleISR.c **** }
 156:Generated_Source\PSoC5/CycleISR.c **** 
 157:Generated_Source\PSoC5/CycleISR.c **** 
 158:Generated_Source\PSoC5/CycleISR.c **** /*******************************************************************************
 159:Generated_Source\PSoC5/CycleISR.c **** * Function Name: CycleISR_Interrupt
 160:Generated_Source\PSoC5/CycleISR.c **** ********************************************************************************
 161:Generated_Source\PSoC5/CycleISR.c **** *
 162:Generated_Source\PSoC5/CycleISR.c **** * Summary:
 163:Generated_Source\PSoC5/CycleISR.c **** *   The default Interrupt Service Routine for CycleISR.
 164:Generated_Source\PSoC5/CycleISR.c **** *
 165:Generated_Source\PSoC5/CycleISR.c **** *   Add custom code between the coments to keep the next version of this file
 166:Generated_Source\PSoC5/CycleISR.c **** *   from over writting your code.
 167:Generated_Source\PSoC5/CycleISR.c **** *
 168:Generated_Source\PSoC5/CycleISR.c **** * Parameters:  
 169:Generated_Source\PSoC5/CycleISR.c **** *
 170:Generated_Source\PSoC5/CycleISR.c **** * Return:
 171:Generated_Source\PSoC5/CycleISR.c **** *   None
 172:Generated_Source\PSoC5/CycleISR.c **** *
 173:Generated_Source\PSoC5/CycleISR.c **** *******************************************************************************/
 174:Generated_Source\PSoC5/CycleISR.c **** CY_ISR(CycleISR_Interrupt)
 175:Generated_Source\PSoC5/CycleISR.c **** {
  28              		.loc 1 175 0
  29              		.cfi_startproc
  30              		@ args = 0, pretend = 0, frame = 16
  31              		@ frame_needed = 0, uses_anonymous_args = 0
  32 0000 70B5     		push	{r4, r5, r6, lr}
  33              		.cfi_def_cfa_offset 16
  34              		.cfi_offset 4, -16
  35              		.cfi_offset 5, -12
  36              		.cfi_offset 6, -8
  37              		.cfi_offset 14, -4
  38 0002 84B0     		sub	sp, sp, #16
  39              		.cfi_def_cfa_offset 32
 176:Generated_Source\PSoC5/CycleISR.c ****     #ifdef CycleISR_INTERRUPT_INTERRUPT_CALLBACK
 177:Generated_Source\PSoC5/CycleISR.c ****         CycleISR_Interrupt_InterruptCallback();
 178:Generated_Source\PSoC5/CycleISR.c ****     #endif /* CycleISR_INTERRUPT_INTERRUPT_CALLBACK */ 
 179:Generated_Source\PSoC5/CycleISR.c **** 
 180:Generated_Source\PSoC5/CycleISR.c ****     /*  Place your Interrupt code here. */
 181:Generated_Source\PSoC5/CycleISR.c ****     /* `#START CycleISR_Interrupt` */
 182:Generated_Source\PSoC5/CycleISR.c ****     char a[2];
 183:Generated_Source\PSoC5/CycleISR.c ****     char arr[1];
 184:Generated_Source\PSoC5/CycleISR.c ****     char addr[1];
 185:Generated_Source\PSoC5/CycleISR.c ****     char mpos[1];
 186:Generated_Source\PSoC5/CycleISR.c ****     char cpos[1];
 187:Generated_Source\PSoC5/CycleISR.c ****     I2C_Start();
  40              		.loc 1 187 0
  41 0004 FFF7FEFF 		bl	I2C_Start
ARM GAS  C:\Users\chascha\AppData\Local\Temp\cc2Dah4a.s 			page 5


  42              	.LVL0:
 188:Generated_Source\PSoC5/CycleISR.c ****         // LOOPING THRU EEPROM UNTIL VALID mPos IS FOUND //
 189:Generated_Source\PSoC5/CycleISR.c ****         if(addre < 10)
  43              		.loc 1 189 0
  44 0008 314B     		ldr	r3, .L7
  45 000a 1B78     		ldrb	r3, [r3]	@ zero_extendqisi2
  46 000c 092B     		cmp	r3, #9
  47 000e 58D8     		bhi	.L2
 190:Generated_Source\PSoC5/CycleISR.c ****         {
 191:Generated_Source\PSoC5/CycleISR.c ****             
 192:Generated_Source\PSoC5/CycleISR.c ****             I2C_MasterWriteBuf(0b01010000, &addre, 1, I2C_MODE_COMPLETE_XFER);
  48              		.loc 1 192 0
  49 0010 0023     		movs	r3, #0
  50 0012 0122     		movs	r2, #1
  51 0014 2E49     		ldr	r1, .L7
  52 0016 5020     		movs	r0, #80
  53 0018 FFF7FEFF 		bl	I2C_MasterWriteBuf
  54              	.LVL1:
  55              	.L3:
 193:Generated_Source\PSoC5/CycleISR.c ****             while (!(I2C_MasterStatus() & I2C_MSTAT_WR_CMPLT));
  56              		.loc 1 193 0 discriminator 1
  57 001c FFF7FEFF 		bl	I2C_MasterStatus
  58              	.LVL2:
  59 0020 10F0020F 		tst	r0, #2
  60 0024 FAD0     		beq	.L3
 194:Generated_Source\PSoC5/CycleISR.c ****             I2C_MasterClearStatus();
  61              		.loc 1 194 0
  62 0026 FFF7FEFF 		bl	I2C_MasterClearStatus
  63              	.LVL3:
 195:Generated_Source\PSoC5/CycleISR.c ****             CyDelay(5);
  64              		.loc 1 195 0
  65 002a 0520     		movs	r0, #5
  66 002c FFF7FEFF 		bl	CyDelay
  67              	.LVL4:
 196:Generated_Source\PSoC5/CycleISR.c **** 
 197:Generated_Source\PSoC5/CycleISR.c ****             I2C_MasterReadBuf(0b01010000, &readPos, 1, I2C_MODE_COMPLETE_XFER);
  68              		.loc 1 197 0
  69 0030 0023     		movs	r3, #0
  70 0032 0122     		movs	r2, #1
  71 0034 2749     		ldr	r1, .L7+4
  72 0036 5020     		movs	r0, #80
  73 0038 FFF7FEFF 		bl	I2C_MasterReadBuf
  74              	.LVL5:
  75              	.L4:
 198:Generated_Source\PSoC5/CycleISR.c ****             while (!(I2C_MasterStatus() & I2C_MSTAT_RD_CMPLT));
  76              		.loc 1 198 0 discriminator 1
  77 003c FFF7FEFF 		bl	I2C_MasterStatus
  78              	.LVL6:
  79 0040 10F0010F 		tst	r0, #1
  80 0044 FAD0     		beq	.L4
 199:Generated_Source\PSoC5/CycleISR.c ****             I2C_MasterClearStatus();
  81              		.loc 1 199 0
  82 0046 FFF7FEFF 		bl	I2C_MasterClearStatus
  83              	.LVL7:
 200:Generated_Source\PSoC5/CycleISR.c ****             
 201:Generated_Source\PSoC5/CycleISR.c ****             LCD_I2C_clear();
  84              		.loc 1 201 0
ARM GAS  C:\Users\chascha\AppData\Local\Temp\cc2Dah4a.s 			page 6


  85 004a FFF7FEFF 		bl	LCD_I2C_clear
  86              	.LVL8:
 202:Generated_Source\PSoC5/CycleISR.c ****             
 203:Generated_Source\PSoC5/CycleISR.c ****             LCD_I2C_setCursor(0,0);
  87              		.loc 1 203 0
  88 004e 0021     		movs	r1, #0
  89 0050 0846     		mov	r0, r1
  90 0052 FFF7FEFF 		bl	LCD_I2C_setCursor
  91              	.LVL9:
 204:Generated_Source\PSoC5/CycleISR.c ****             LCD_I2C_print("ID:");
  92              		.loc 1 204 0
  93 0056 2048     		ldr	r0, .L7+8
  94 0058 FFF7FEFF 		bl	LCD_I2C_print
  95              	.LVL10:
 205:Generated_Source\PSoC5/CycleISR.c ****             sprintf(addr, "%d", addre);
  96              		.loc 1 205 0
  97 005c 1C4C     		ldr	r4, .L7
  98 005e 1F4D     		ldr	r5, .L7+12
  99 0060 2278     		ldrb	r2, [r4]	@ zero_extendqisi2
 100 0062 2946     		mov	r1, r5
 101 0064 03A8     		add	r0, sp, #12
 102 0066 FFF7FEFF 		bl	sprintf
 103              	.LVL11:
 206:Generated_Source\PSoC5/CycleISR.c ****             LCD_I2C_print(addr);
 104              		.loc 1 206 0
 105 006a 03A8     		add	r0, sp, #12
 106 006c FFF7FEFF 		bl	LCD_I2C_print
 107              	.LVL12:
 207:Generated_Source\PSoC5/CycleISR.c ****             
 208:Generated_Source\PSoC5/CycleISR.c ****             LCD_I2C_setCursor(6,0);
 108              		.loc 1 208 0
 109 0070 0021     		movs	r1, #0
 110 0072 0620     		movs	r0, #6
 111 0074 FFF7FEFF 		bl	LCD_I2C_setCursor
 112              	.LVL13:
 209:Generated_Source\PSoC5/CycleISR.c ****             LCD_I2C_print("rPos:");
 113              		.loc 1 209 0
 114 0078 1948     		ldr	r0, .L7+16
 115 007a FFF7FEFF 		bl	LCD_I2C_print
 116              	.LVL14:
 210:Generated_Source\PSoC5/CycleISR.c ****             sprintf(mpos, "%d", readPos);
 117              		.loc 1 210 0
 118 007e 154E     		ldr	r6, .L7+4
 119 0080 3278     		ldrb	r2, [r6]	@ zero_extendqisi2
 120 0082 2946     		mov	r1, r5
 121 0084 02A8     		add	r0, sp, #8
 122 0086 FFF7FEFF 		bl	sprintf
 123              	.LVL15:
 211:Generated_Source\PSoC5/CycleISR.c ****             LCD_I2C_print(mpos);
 124              		.loc 1 211 0
 125 008a 02A8     		add	r0, sp, #8
 126 008c FFF7FEFF 		bl	LCD_I2C_print
 127              	.LVL16:
 212:Generated_Source\PSoC5/CycleISR.c ****             
 213:Generated_Source\PSoC5/CycleISR.c ****             LCD_I2C_setCursor(0,1);
 128              		.loc 1 213 0
 129 0090 0121     		movs	r1, #1
ARM GAS  C:\Users\chascha\AppData\Local\Temp\cc2Dah4a.s 			page 7


 130 0092 0020     		movs	r0, #0
 131 0094 FFF7FEFF 		bl	LCD_I2C_setCursor
 132              	.LVL17:
 214:Generated_Source\PSoC5/CycleISR.c ****             LCD_I2C_print("cPos:");
 133              		.loc 1 214 0
 134 0098 1248     		ldr	r0, .L7+20
 135 009a FFF7FEFF 		bl	LCD_I2C_print
 136              	.LVL18:
 215:Generated_Source\PSoC5/CycleISR.c ****             sprintf(cpos, "%d", mPos);
 137              		.loc 1 215 0
 138 009e 124B     		ldr	r3, .L7+24
 139 00a0 1A68     		ldr	r2, [r3]
 140 00a2 2946     		mov	r1, r5
 141 00a4 01A8     		add	r0, sp, #4
 142 00a6 FFF7FEFF 		bl	sprintf
 143              	.LVL19:
 216:Generated_Source\PSoC5/CycleISR.c ****             LCD_I2C_print(cpos);
 144              		.loc 1 216 0
 145 00aa 01A8     		add	r0, sp, #4
 146 00ac FFF7FEFF 		bl	LCD_I2C_print
 147              	.LVL20:
 217:Generated_Source\PSoC5/CycleISR.c ****             
 218:Generated_Source\PSoC5/CycleISR.c ****             FPSID = addre;
 148              		.loc 1 218 0
 149 00b0 2378     		ldrb	r3, [r4]	@ zero_extendqisi2
 150 00b2 0E4A     		ldr	r2, .L7+28
 151 00b4 1370     		strb	r3, [r2]
 219:Generated_Source\PSoC5/CycleISR.c ****             FPSmPos = readPos;
 152              		.loc 1 219 0
 153 00b6 3178     		ldrb	r1, [r6]	@ zero_extendqisi2
 154 00b8 0D4A     		ldr	r2, .L7+32
 155 00ba 1170     		strb	r1, [r2]
 220:Generated_Source\PSoC5/CycleISR.c ****             addre++;
 156              		.loc 1 220 0
 157 00bc 0133     		adds	r3, r3, #1
 158 00be 2370     		strb	r3, [r4]
 159 00c0 04E0     		b	.L1
 160              	.L2:
 221:Generated_Source\PSoC5/CycleISR.c ****         }
 222:Generated_Source\PSoC5/CycleISR.c ****         else
 223:Generated_Source\PSoC5/CycleISR.c ****         {
 224:Generated_Source\PSoC5/CycleISR.c ****             addre = 0;
 161              		.loc 1 224 0
 162 00c2 0022     		movs	r2, #0
 163 00c4 024B     		ldr	r3, .L7
 164 00c6 1A70     		strb	r2, [r3]
 225:Generated_Source\PSoC5/CycleISR.c ****             I2C_Stop();
 165              		.loc 1 225 0
 166 00c8 FFF7FEFF 		bl	I2C_Stop
 167              	.LVL21:
 168              	.L1:
 226:Generated_Source\PSoC5/CycleISR.c ****         }
 227:Generated_Source\PSoC5/CycleISR.c ****         
 228:Generated_Source\PSoC5/CycleISR.c ****         
 229:Generated_Source\PSoC5/CycleISR.c ****     /*
 230:Generated_Source\PSoC5/CycleISR.c ****         Read until valid id is found, when found, read data
 231:Generated_Source\PSoC5/CycleISR.c ****         Reads and Displays, does not set motor position or unlock yet.
ARM GAS  C:\Users\chascha\AppData\Local\Temp\cc2Dah4a.s 			page 8


 232:Generated_Source\PSoC5/CycleISR.c ****     
 233:Generated_Source\PSoC5/CycleISR.c ****         ID:
 234:Generated_Source\PSoC5/CycleISR.c ****         Motor Position:
 235:Generated_Source\PSoC5/CycleISR.c ****     
 236:Generated_Source\PSoC5/CycleISR.c ****     
 237:Generated_Source\PSoC5/CycleISR.c ****     */
 238:Generated_Source\PSoC5/CycleISR.c ****     
 239:Generated_Source\PSoC5/CycleISR.c ****     /* `#END` */
 240:Generated_Source\PSoC5/CycleISR.c **** }
 169              		.loc 1 240 0
 170 00cc 04B0     		add	sp, sp, #16
 171              		.cfi_def_cfa_offset 16
 172              		@ sp needed
 173 00ce 70BD     		pop	{r4, r5, r6, pc}
 174              	.L8:
 175              		.align	2
 176              	.L7:
 177 00d0 00000000 		.word	.LANCHOR0
 178 00d4 00000000 		.word	readPos
 179 00d8 00000000 		.word	.LC0
 180 00dc 04000000 		.word	.LC1
 181 00e0 08000000 		.word	.LC2
 182 00e4 10000000 		.word	.LC3
 183 00e8 00000000 		.word	mPos
 184 00ec 00000000 		.word	FPSID
 185 00f0 00000000 		.word	FPSmPos
 186              		.cfi_endproc
 187              	.LFE4:
 188              		.size	CycleISR_Interrupt, .-CycleISR_Interrupt
 189              		.section	.text.CycleISR_SetVector,"ax",%progbits
 190              		.align	2
 191              		.global	CycleISR_SetVector
 192              		.thumb
 193              		.thumb_func
 194              		.type	CycleISR_SetVector, %function
 195              	CycleISR_SetVector:
 196              	.LFB5:
 241:Generated_Source\PSoC5/CycleISR.c **** 
 242:Generated_Source\PSoC5/CycleISR.c **** 
 243:Generated_Source\PSoC5/CycleISR.c **** /*******************************************************************************
 244:Generated_Source\PSoC5/CycleISR.c **** * Function Name: CycleISR_SetVector
 245:Generated_Source\PSoC5/CycleISR.c **** ********************************************************************************
 246:Generated_Source\PSoC5/CycleISR.c **** *
 247:Generated_Source\PSoC5/CycleISR.c **** * Summary:
 248:Generated_Source\PSoC5/CycleISR.c **** *   Change the ISR vector for the Interrupt. Note calling CycleISR_Start
 249:Generated_Source\PSoC5/CycleISR.c **** *   will override any effect this method would have had. To set the vector 
 250:Generated_Source\PSoC5/CycleISR.c **** *   before the component has been started use CycleISR_StartEx instead.
 251:Generated_Source\PSoC5/CycleISR.c **** * 
 252:Generated_Source\PSoC5/CycleISR.c **** *   When defining ISR functions, the CY_ISR and CY_ISR_PROTO macros should be 
 253:Generated_Source\PSoC5/CycleISR.c **** *   used to provide consistent definition across compilers:
 254:Generated_Source\PSoC5/CycleISR.c **** *
 255:Generated_Source\PSoC5/CycleISR.c **** *   Function definition example:
 256:Generated_Source\PSoC5/CycleISR.c **** *   CY_ISR(MyISR)
 257:Generated_Source\PSoC5/CycleISR.c **** *   {
 258:Generated_Source\PSoC5/CycleISR.c **** *   }
 259:Generated_Source\PSoC5/CycleISR.c **** *
 260:Generated_Source\PSoC5/CycleISR.c **** *   Function prototype example:
ARM GAS  C:\Users\chascha\AppData\Local\Temp\cc2Dah4a.s 			page 9


 261:Generated_Source\PSoC5/CycleISR.c **** *     CY_ISR_PROTO(MyISR);
 262:Generated_Source\PSoC5/CycleISR.c **** *
 263:Generated_Source\PSoC5/CycleISR.c **** * Parameters:
 264:Generated_Source\PSoC5/CycleISR.c **** *   address: Address of the ISR to set in the interrupt vector table.
 265:Generated_Source\PSoC5/CycleISR.c **** *
 266:Generated_Source\PSoC5/CycleISR.c **** * Return:
 267:Generated_Source\PSoC5/CycleISR.c **** *   None
 268:Generated_Source\PSoC5/CycleISR.c **** *
 269:Generated_Source\PSoC5/CycleISR.c **** *******************************************************************************/
 270:Generated_Source\PSoC5/CycleISR.c **** void CycleISR_SetVector(cyisraddress address)
 271:Generated_Source\PSoC5/CycleISR.c **** {
 197              		.loc 1 271 0
 198              		.cfi_startproc
 199              		@ args = 0, pretend = 0, frame = 0
 200              		@ frame_needed = 0, uses_anonymous_args = 0
 201              		@ link register save eliminated.
 202              	.LVL22:
 272:Generated_Source\PSoC5/CycleISR.c ****     cyisraddress * ramVectorTable;
 273:Generated_Source\PSoC5/CycleISR.c **** 
 274:Generated_Source\PSoC5/CycleISR.c ****     ramVectorTable = (cyisraddress *) *CYINT_VECT_TABLE;
 203              		.loc 1 274 0
 204 0000 014B     		ldr	r3, .L10
 205 0002 1B68     		ldr	r3, [r3]
 206              	.LVL23:
 275:Generated_Source\PSoC5/CycleISR.c **** 
 276:Generated_Source\PSoC5/CycleISR.c ****     ramVectorTable[CYINT_IRQ_BASE + (uint32)CycleISR__INTC_NUMBER] = address;
 207              		.loc 1 276 0
 208 0004 9864     		str	r0, [r3, #72]
 209 0006 7047     		bx	lr
 210              	.L11:
 211              		.align	2
 212              	.L10:
 213 0008 08ED00E0 		.word	-536810232
 214              		.cfi_endproc
 215              	.LFE5:
 216              		.size	CycleISR_SetVector, .-CycleISR_SetVector
 217              		.section	.text.CycleISR_GetVector,"ax",%progbits
 218              		.align	2
 219              		.global	CycleISR_GetVector
 220              		.thumb
 221              		.thumb_func
 222              		.type	CycleISR_GetVector, %function
 223              	CycleISR_GetVector:
 224              	.LFB6:
 277:Generated_Source\PSoC5/CycleISR.c **** }
 278:Generated_Source\PSoC5/CycleISR.c **** 
 279:Generated_Source\PSoC5/CycleISR.c **** 
 280:Generated_Source\PSoC5/CycleISR.c **** /*******************************************************************************
 281:Generated_Source\PSoC5/CycleISR.c **** * Function Name: CycleISR_GetVector
 282:Generated_Source\PSoC5/CycleISR.c **** ********************************************************************************
 283:Generated_Source\PSoC5/CycleISR.c **** *
 284:Generated_Source\PSoC5/CycleISR.c **** * Summary:
 285:Generated_Source\PSoC5/CycleISR.c **** *   Gets the "address" of the current ISR vector for the Interrupt.
 286:Generated_Source\PSoC5/CycleISR.c **** *
 287:Generated_Source\PSoC5/CycleISR.c **** * Parameters:
 288:Generated_Source\PSoC5/CycleISR.c **** *   None
 289:Generated_Source\PSoC5/CycleISR.c **** *
ARM GAS  C:\Users\chascha\AppData\Local\Temp\cc2Dah4a.s 			page 10


 290:Generated_Source\PSoC5/CycleISR.c **** * Return:
 291:Generated_Source\PSoC5/CycleISR.c **** *   Address of the ISR in the interrupt vector table.
 292:Generated_Source\PSoC5/CycleISR.c **** *
 293:Generated_Source\PSoC5/CycleISR.c **** *******************************************************************************/
 294:Generated_Source\PSoC5/CycleISR.c **** cyisraddress CycleISR_GetVector(void)
 295:Generated_Source\PSoC5/CycleISR.c **** {
 225              		.loc 1 295 0
 226              		.cfi_startproc
 227              		@ args = 0, pretend = 0, frame = 0
 228              		@ frame_needed = 0, uses_anonymous_args = 0
 229              		@ link register save eliminated.
 296:Generated_Source\PSoC5/CycleISR.c ****     cyisraddress * ramVectorTable;
 297:Generated_Source\PSoC5/CycleISR.c **** 
 298:Generated_Source\PSoC5/CycleISR.c ****     ramVectorTable = (cyisraddress *) *CYINT_VECT_TABLE;
 230              		.loc 1 298 0
 231 0000 014B     		ldr	r3, .L13
 232 0002 1B68     		ldr	r3, [r3]
 233              	.LVL24:
 299:Generated_Source\PSoC5/CycleISR.c **** 
 300:Generated_Source\PSoC5/CycleISR.c ****     return ramVectorTable[CYINT_IRQ_BASE + (uint32)CycleISR__INTC_NUMBER];
 301:Generated_Source\PSoC5/CycleISR.c **** }
 234              		.loc 1 301 0
 235 0004 986C     		ldr	r0, [r3, #72]
 236 0006 7047     		bx	lr
 237              	.L14:
 238              		.align	2
 239              	.L13:
 240 0008 08ED00E0 		.word	-536810232
 241              		.cfi_endproc
 242              	.LFE6:
 243              		.size	CycleISR_GetVector, .-CycleISR_GetVector
 244              		.section	.text.CycleISR_SetPriority,"ax",%progbits
 245              		.align	2
 246              		.global	CycleISR_SetPriority
 247              		.thumb
 248              		.thumb_func
 249              		.type	CycleISR_SetPriority, %function
 250              	CycleISR_SetPriority:
 251              	.LFB7:
 302:Generated_Source\PSoC5/CycleISR.c **** 
 303:Generated_Source\PSoC5/CycleISR.c **** 
 304:Generated_Source\PSoC5/CycleISR.c **** /*******************************************************************************
 305:Generated_Source\PSoC5/CycleISR.c **** * Function Name: CycleISR_SetPriority
 306:Generated_Source\PSoC5/CycleISR.c **** ********************************************************************************
 307:Generated_Source\PSoC5/CycleISR.c **** *
 308:Generated_Source\PSoC5/CycleISR.c **** * Summary:
 309:Generated_Source\PSoC5/CycleISR.c **** *   Sets the Priority of the Interrupt. 
 310:Generated_Source\PSoC5/CycleISR.c **** *
 311:Generated_Source\PSoC5/CycleISR.c **** *   Note calling CycleISR_Start or CycleISR_StartEx will 
 312:Generated_Source\PSoC5/CycleISR.c **** *   override any effect this API would have had. This API should only be called
 313:Generated_Source\PSoC5/CycleISR.c **** *   after CycleISR_Start or CycleISR_StartEx has been called. 
 314:Generated_Source\PSoC5/CycleISR.c **** *   To set the initial priority for the component, use the Design-Wide Resources
 315:Generated_Source\PSoC5/CycleISR.c **** *   Interrupt Editor.
 316:Generated_Source\PSoC5/CycleISR.c **** *
 317:Generated_Source\PSoC5/CycleISR.c **** *   Note This API has no effect on Non-maskable interrupt NMI).
 318:Generated_Source\PSoC5/CycleISR.c **** *
 319:Generated_Source\PSoC5/CycleISR.c **** * Parameters:
ARM GAS  C:\Users\chascha\AppData\Local\Temp\cc2Dah4a.s 			page 11


 320:Generated_Source\PSoC5/CycleISR.c **** *   priority: Priority of the interrupt, 0 being the highest priority
 321:Generated_Source\PSoC5/CycleISR.c **** *             PSoC 3 and PSoC 5LP: Priority is from 0 to 7.
 322:Generated_Source\PSoC5/CycleISR.c **** *             PSoC 4: Priority is from 0 to 3.
 323:Generated_Source\PSoC5/CycleISR.c **** *
 324:Generated_Source\PSoC5/CycleISR.c **** * Return:
 325:Generated_Source\PSoC5/CycleISR.c **** *   None
 326:Generated_Source\PSoC5/CycleISR.c **** *
 327:Generated_Source\PSoC5/CycleISR.c **** *******************************************************************************/
 328:Generated_Source\PSoC5/CycleISR.c **** void CycleISR_SetPriority(uint8 priority)
 329:Generated_Source\PSoC5/CycleISR.c **** {
 252              		.loc 1 329 0
 253              		.cfi_startproc
 254              		@ args = 0, pretend = 0, frame = 0
 255              		@ frame_needed = 0, uses_anonymous_args = 0
 256              		@ link register save eliminated.
 257              	.LVL25:
 330:Generated_Source\PSoC5/CycleISR.c ****     *CycleISR_INTC_PRIOR = priority << 5;
 258              		.loc 1 330 0
 259 0000 4001     		lsls	r0, r0, #5
 260              	.LVL26:
 261 0002 C0B2     		uxtb	r0, r0
 262 0004 014B     		ldr	r3, .L16
 263 0006 1870     		strb	r0, [r3]
 264 0008 7047     		bx	lr
 265              	.L17:
 266 000a 00BF     		.align	2
 267              	.L16:
 268 000c 02E400E0 		.word	-536812542
 269              		.cfi_endproc
 270              	.LFE7:
 271              		.size	CycleISR_SetPriority, .-CycleISR_SetPriority
 272              		.section	.text.CycleISR_GetPriority,"ax",%progbits
 273              		.align	2
 274              		.global	CycleISR_GetPriority
 275              		.thumb
 276              		.thumb_func
 277              		.type	CycleISR_GetPriority, %function
 278              	CycleISR_GetPriority:
 279              	.LFB8:
 331:Generated_Source\PSoC5/CycleISR.c **** }
 332:Generated_Source\PSoC5/CycleISR.c **** 
 333:Generated_Source\PSoC5/CycleISR.c **** 
 334:Generated_Source\PSoC5/CycleISR.c **** /*******************************************************************************
 335:Generated_Source\PSoC5/CycleISR.c **** * Function Name: CycleISR_GetPriority
 336:Generated_Source\PSoC5/CycleISR.c **** ********************************************************************************
 337:Generated_Source\PSoC5/CycleISR.c **** *
 338:Generated_Source\PSoC5/CycleISR.c **** * Summary:
 339:Generated_Source\PSoC5/CycleISR.c **** *   Gets the Priority of the Interrupt.
 340:Generated_Source\PSoC5/CycleISR.c **** *
 341:Generated_Source\PSoC5/CycleISR.c **** * Parameters:
 342:Generated_Source\PSoC5/CycleISR.c **** *   None
 343:Generated_Source\PSoC5/CycleISR.c **** *
 344:Generated_Source\PSoC5/CycleISR.c **** * Return:
 345:Generated_Source\PSoC5/CycleISR.c **** *   Priority of the interrupt, 0 being the highest priority
 346:Generated_Source\PSoC5/CycleISR.c **** *    PSoC 3 and PSoC 5LP: Priority is from 0 to 7.
 347:Generated_Source\PSoC5/CycleISR.c **** *    PSoC 4: Priority is from 0 to 3.
 348:Generated_Source\PSoC5/CycleISR.c **** *
ARM GAS  C:\Users\chascha\AppData\Local\Temp\cc2Dah4a.s 			page 12


 349:Generated_Source\PSoC5/CycleISR.c **** *******************************************************************************/
 350:Generated_Source\PSoC5/CycleISR.c **** uint8 CycleISR_GetPriority(void)
 351:Generated_Source\PSoC5/CycleISR.c **** {
 280              		.loc 1 351 0
 281              		.cfi_startproc
 282              		@ args = 0, pretend = 0, frame = 0
 283              		@ frame_needed = 0, uses_anonymous_args = 0
 284              		@ link register save eliminated.
 352:Generated_Source\PSoC5/CycleISR.c ****     uint8 priority;
 353:Generated_Source\PSoC5/CycleISR.c **** 
 354:Generated_Source\PSoC5/CycleISR.c **** 
 355:Generated_Source\PSoC5/CycleISR.c ****     priority = *CycleISR_INTC_PRIOR >> 5;
 285              		.loc 1 355 0
 286 0000 014B     		ldr	r3, .L19
 287 0002 1878     		ldrb	r0, [r3]	@ zero_extendqisi2
 288              	.LVL27:
 356:Generated_Source\PSoC5/CycleISR.c **** 
 357:Generated_Source\PSoC5/CycleISR.c ****     return priority;
 358:Generated_Source\PSoC5/CycleISR.c **** }
 289              		.loc 1 358 0
 290 0004 4009     		lsrs	r0, r0, #5
 291              	.LVL28:
 292 0006 7047     		bx	lr
 293              	.L20:
 294              		.align	2
 295              	.L19:
 296 0008 02E400E0 		.word	-536812542
 297              		.cfi_endproc
 298              	.LFE8:
 299              		.size	CycleISR_GetPriority, .-CycleISR_GetPriority
 300              		.section	.text.CycleISR_Enable,"ax",%progbits
 301              		.align	2
 302              		.global	CycleISR_Enable
 303              		.thumb
 304              		.thumb_func
 305              		.type	CycleISR_Enable, %function
 306              	CycleISR_Enable:
 307              	.LFB9:
 359:Generated_Source\PSoC5/CycleISR.c **** 
 360:Generated_Source\PSoC5/CycleISR.c **** 
 361:Generated_Source\PSoC5/CycleISR.c **** /*******************************************************************************
 362:Generated_Source\PSoC5/CycleISR.c **** * Function Name: CycleISR_Enable
 363:Generated_Source\PSoC5/CycleISR.c **** ********************************************************************************
 364:Generated_Source\PSoC5/CycleISR.c **** *
 365:Generated_Source\PSoC5/CycleISR.c **** * Summary:
 366:Generated_Source\PSoC5/CycleISR.c **** *   Enables the interrupt to the interrupt controller. Do not call this function
 367:Generated_Source\PSoC5/CycleISR.c **** *   unless ISR_Start() has been called or the functionality of the ISR_Start() 
 368:Generated_Source\PSoC5/CycleISR.c **** *   function, which sets the vector and the priority, has been called.
 369:Generated_Source\PSoC5/CycleISR.c **** *
 370:Generated_Source\PSoC5/CycleISR.c **** * Parameters:
 371:Generated_Source\PSoC5/CycleISR.c **** *   None
 372:Generated_Source\PSoC5/CycleISR.c **** *
 373:Generated_Source\PSoC5/CycleISR.c **** * Return:
 374:Generated_Source\PSoC5/CycleISR.c **** *   None
 375:Generated_Source\PSoC5/CycleISR.c **** *
 376:Generated_Source\PSoC5/CycleISR.c **** *******************************************************************************/
 377:Generated_Source\PSoC5/CycleISR.c **** void CycleISR_Enable(void)
ARM GAS  C:\Users\chascha\AppData\Local\Temp\cc2Dah4a.s 			page 13


 378:Generated_Source\PSoC5/CycleISR.c **** {
 308              		.loc 1 378 0
 309              		.cfi_startproc
 310              		@ args = 0, pretend = 0, frame = 0
 311              		@ frame_needed = 0, uses_anonymous_args = 0
 312              		@ link register save eliminated.
 379:Generated_Source\PSoC5/CycleISR.c ****     /* Enable the general interrupt. */
 380:Generated_Source\PSoC5/CycleISR.c ****     *CycleISR_INTC_SET_EN = CycleISR__INTC_MASK;
 313              		.loc 1 380 0
 314 0000 0422     		movs	r2, #4
 315 0002 014B     		ldr	r3, .L22
 316 0004 1A60     		str	r2, [r3]
 317 0006 7047     		bx	lr
 318              	.L23:
 319              		.align	2
 320              	.L22:
 321 0008 00E100E0 		.word	-536813312
 322              		.cfi_endproc
 323              	.LFE9:
 324              		.size	CycleISR_Enable, .-CycleISR_Enable
 325              		.section	.text.CycleISR_GetState,"ax",%progbits
 326              		.align	2
 327              		.global	CycleISR_GetState
 328              		.thumb
 329              		.thumb_func
 330              		.type	CycleISR_GetState, %function
 331              	CycleISR_GetState:
 332              	.LFB10:
 381:Generated_Source\PSoC5/CycleISR.c **** }
 382:Generated_Source\PSoC5/CycleISR.c **** 
 383:Generated_Source\PSoC5/CycleISR.c **** 
 384:Generated_Source\PSoC5/CycleISR.c **** /*******************************************************************************
 385:Generated_Source\PSoC5/CycleISR.c **** * Function Name: CycleISR_GetState
 386:Generated_Source\PSoC5/CycleISR.c **** ********************************************************************************
 387:Generated_Source\PSoC5/CycleISR.c **** *
 388:Generated_Source\PSoC5/CycleISR.c **** * Summary:
 389:Generated_Source\PSoC5/CycleISR.c **** *   Gets the state (enabled, disabled) of the Interrupt.
 390:Generated_Source\PSoC5/CycleISR.c **** *
 391:Generated_Source\PSoC5/CycleISR.c **** * Parameters:
 392:Generated_Source\PSoC5/CycleISR.c **** *   None
 393:Generated_Source\PSoC5/CycleISR.c **** *
 394:Generated_Source\PSoC5/CycleISR.c **** * Return:
 395:Generated_Source\PSoC5/CycleISR.c **** *   1 if enabled, 0 if disabled.
 396:Generated_Source\PSoC5/CycleISR.c **** *
 397:Generated_Source\PSoC5/CycleISR.c **** *******************************************************************************/
 398:Generated_Source\PSoC5/CycleISR.c **** uint8 CycleISR_GetState(void)
 399:Generated_Source\PSoC5/CycleISR.c **** {
 333              		.loc 1 399 0
 334              		.cfi_startproc
 335              		@ args = 0, pretend = 0, frame = 0
 336              		@ frame_needed = 0, uses_anonymous_args = 0
 337              		@ link register save eliminated.
 400:Generated_Source\PSoC5/CycleISR.c ****     /* Get the state of the general interrupt. */
 401:Generated_Source\PSoC5/CycleISR.c ****     return ((*CycleISR_INTC_SET_EN & (uint32)CycleISR__INTC_MASK) != 0u) ? 1u:0u;
 338              		.loc 1 401 0
 339 0000 044B     		ldr	r3, .L27
 340 0002 1B68     		ldr	r3, [r3]
ARM GAS  C:\Users\chascha\AppData\Local\Temp\cc2Dah4a.s 			page 14


 341 0004 13F0040F 		tst	r3, #4
 342 0008 01D0     		beq	.L26
 343 000a 0120     		movs	r0, #1
 344 000c 7047     		bx	lr
 345              	.L26:
 346 000e 0020     		movs	r0, #0
 402:Generated_Source\PSoC5/CycleISR.c **** }
 347              		.loc 1 402 0
 348 0010 7047     		bx	lr
 349              	.L28:
 350 0012 00BF     		.align	2
 351              	.L27:
 352 0014 00E100E0 		.word	-536813312
 353              		.cfi_endproc
 354              	.LFE10:
 355              		.size	CycleISR_GetState, .-CycleISR_GetState
 356              		.section	.text.CycleISR_Disable,"ax",%progbits
 357              		.align	2
 358              		.global	CycleISR_Disable
 359              		.thumb
 360              		.thumb_func
 361              		.type	CycleISR_Disable, %function
 362              	CycleISR_Disable:
 363              	.LFB11:
 403:Generated_Source\PSoC5/CycleISR.c **** 
 404:Generated_Source\PSoC5/CycleISR.c **** 
 405:Generated_Source\PSoC5/CycleISR.c **** /*******************************************************************************
 406:Generated_Source\PSoC5/CycleISR.c **** * Function Name: CycleISR_Disable
 407:Generated_Source\PSoC5/CycleISR.c **** ********************************************************************************
 408:Generated_Source\PSoC5/CycleISR.c **** *
 409:Generated_Source\PSoC5/CycleISR.c **** * Summary:
 410:Generated_Source\PSoC5/CycleISR.c **** *   Disables the Interrupt in the interrupt controller.
 411:Generated_Source\PSoC5/CycleISR.c **** *
 412:Generated_Source\PSoC5/CycleISR.c **** * Parameters:
 413:Generated_Source\PSoC5/CycleISR.c **** *   None
 414:Generated_Source\PSoC5/CycleISR.c **** *
 415:Generated_Source\PSoC5/CycleISR.c **** * Return:
 416:Generated_Source\PSoC5/CycleISR.c **** *   None
 417:Generated_Source\PSoC5/CycleISR.c **** *
 418:Generated_Source\PSoC5/CycleISR.c **** *******************************************************************************/
 419:Generated_Source\PSoC5/CycleISR.c **** void CycleISR_Disable(void)
 420:Generated_Source\PSoC5/CycleISR.c **** {
 364              		.loc 1 420 0
 365              		.cfi_startproc
 366              		@ args = 0, pretend = 0, frame = 0
 367              		@ frame_needed = 0, uses_anonymous_args = 0
 368              		@ link register save eliminated.
 421:Generated_Source\PSoC5/CycleISR.c ****     /* Disable the general interrupt. */
 422:Generated_Source\PSoC5/CycleISR.c ****     *CycleISR_INTC_CLR_EN = CycleISR__INTC_MASK;
 369              		.loc 1 422 0
 370 0000 0422     		movs	r2, #4
 371 0002 014B     		ldr	r3, .L30
 372 0004 1A60     		str	r2, [r3]
 373 0006 7047     		bx	lr
 374              	.L31:
 375              		.align	2
 376              	.L30:
ARM GAS  C:\Users\chascha\AppData\Local\Temp\cc2Dah4a.s 			page 15


 377 0008 80E100E0 		.word	-536813184
 378              		.cfi_endproc
 379              	.LFE11:
 380              		.size	CycleISR_Disable, .-CycleISR_Disable
 381              		.section	.text.CycleISR_Start,"ax",%progbits
 382              		.align	2
 383              		.global	CycleISR_Start
 384              		.thumb
 385              		.thumb_func
 386              		.type	CycleISR_Start, %function
 387              	CycleISR_Start:
 388              	.LFB1:
  76:Generated_Source\PSoC5/CycleISR.c ****     /* For all we know the interrupt is active. */
 389              		.loc 1 76 0
 390              		.cfi_startproc
 391              		@ args = 0, pretend = 0, frame = 0
 392              		@ frame_needed = 0, uses_anonymous_args = 0
 393 0000 08B5     		push	{r3, lr}
 394              		.cfi_def_cfa_offset 8
 395              		.cfi_offset 3, -8
 396              		.cfi_offset 14, -4
  78:Generated_Source\PSoC5/CycleISR.c **** 
 397              		.loc 1 78 0
 398 0002 FFF7FEFF 		bl	CycleISR_Disable
 399              	.LVL29:
  81:Generated_Source\PSoC5/CycleISR.c **** 
 400              		.loc 1 81 0
 401 0006 0448     		ldr	r0, .L34
 402 0008 FFF7FEFF 		bl	CycleISR_SetVector
 403              	.LVL30:
  84:Generated_Source\PSoC5/CycleISR.c **** 
 404              		.loc 1 84 0
 405 000c 0720     		movs	r0, #7
 406 000e FFF7FEFF 		bl	CycleISR_SetPriority
 407              	.LVL31:
  87:Generated_Source\PSoC5/CycleISR.c **** }
 408              		.loc 1 87 0
 409 0012 FFF7FEFF 		bl	CycleISR_Enable
 410              	.LVL32:
 411 0016 08BD     		pop	{r3, pc}
 412              	.L35:
 413              		.align	2
 414              	.L34:
 415 0018 00000000 		.word	CycleISR_Interrupt
 416              		.cfi_endproc
 417              	.LFE1:
 418              		.size	CycleISR_Start, .-CycleISR_Start
 419              		.section	.text.CycleISR_StartEx,"ax",%progbits
 420              		.align	2
 421              		.global	CycleISR_StartEx
 422              		.thumb
 423              		.thumb_func
 424              		.type	CycleISR_StartEx, %function
 425              	CycleISR_StartEx:
 426              	.LFB2:
 119:Generated_Source\PSoC5/CycleISR.c ****     /* For all we know the interrupt is active. */
 427              		.loc 1 119 0
ARM GAS  C:\Users\chascha\AppData\Local\Temp\cc2Dah4a.s 			page 16


 428              		.cfi_startproc
 429              		@ args = 0, pretend = 0, frame = 0
 430              		@ frame_needed = 0, uses_anonymous_args = 0
 431              	.LVL33:
 432 0000 10B5     		push	{r4, lr}
 433              		.cfi_def_cfa_offset 8
 434              		.cfi_offset 4, -8
 435              		.cfi_offset 14, -4
 436 0002 0446     		mov	r4, r0
 121:Generated_Source\PSoC5/CycleISR.c **** 
 437              		.loc 1 121 0
 438 0004 FFF7FEFF 		bl	CycleISR_Disable
 439              	.LVL34:
 124:Generated_Source\PSoC5/CycleISR.c **** 
 440              		.loc 1 124 0
 441 0008 2046     		mov	r0, r4
 442 000a FFF7FEFF 		bl	CycleISR_SetVector
 443              	.LVL35:
 127:Generated_Source\PSoC5/CycleISR.c **** 
 444              		.loc 1 127 0
 445 000e 0720     		movs	r0, #7
 446 0010 FFF7FEFF 		bl	CycleISR_SetPriority
 447              	.LVL36:
 130:Generated_Source\PSoC5/CycleISR.c **** }
 448              		.loc 1 130 0
 449 0014 FFF7FEFF 		bl	CycleISR_Enable
 450              	.LVL37:
 451 0018 10BD     		pop	{r4, pc}
 452              		.cfi_endproc
 453              	.LFE2:
 454              		.size	CycleISR_StartEx, .-CycleISR_StartEx
 455 001a 00BF     		.section	.text.CycleISR_Stop,"ax",%progbits
 456              		.align	2
 457              		.global	CycleISR_Stop
 458              		.thumb
 459              		.thumb_func
 460              		.type	CycleISR_Stop, %function
 461              	CycleISR_Stop:
 462              	.LFB3:
 149:Generated_Source\PSoC5/CycleISR.c ****     /* Disable this interrupt. */
 463              		.loc 1 149 0
 464              		.cfi_startproc
 465              		@ args = 0, pretend = 0, frame = 0
 466              		@ frame_needed = 0, uses_anonymous_args = 0
 467 0000 08B5     		push	{r3, lr}
 468              		.cfi_def_cfa_offset 8
 469              		.cfi_offset 3, -8
 470              		.cfi_offset 14, -4
 151:Generated_Source\PSoC5/CycleISR.c **** 
 471              		.loc 1 151 0
 472 0002 FFF7FEFF 		bl	CycleISR_Disable
 473              	.LVL38:
 154:Generated_Source\PSoC5/CycleISR.c **** }
 474              		.loc 1 154 0
 475 0006 0248     		ldr	r0, .L40
 476 0008 FFF7FEFF 		bl	CycleISR_SetVector
 477              	.LVL39:
ARM GAS  C:\Users\chascha\AppData\Local\Temp\cc2Dah4a.s 			page 17


 478 000c 08BD     		pop	{r3, pc}
 479              	.L41:
 480 000e 00BF     		.align	2
 481              	.L40:
 482 0010 00000000 		.word	IntDefaultHandler
 483              		.cfi_endproc
 484              	.LFE3:
 485              		.size	CycleISR_Stop, .-CycleISR_Stop
 486              		.section	.text.CycleISR_SetPending,"ax",%progbits
 487              		.align	2
 488              		.global	CycleISR_SetPending
 489              		.thumb
 490              		.thumb_func
 491              		.type	CycleISR_SetPending, %function
 492              	CycleISR_SetPending:
 493              	.LFB12:
 423:Generated_Source\PSoC5/CycleISR.c **** }
 424:Generated_Source\PSoC5/CycleISR.c **** 
 425:Generated_Source\PSoC5/CycleISR.c **** 
 426:Generated_Source\PSoC5/CycleISR.c **** /*******************************************************************************
 427:Generated_Source\PSoC5/CycleISR.c **** * Function Name: CycleISR_SetPending
 428:Generated_Source\PSoC5/CycleISR.c **** ********************************************************************************
 429:Generated_Source\PSoC5/CycleISR.c **** *
 430:Generated_Source\PSoC5/CycleISR.c **** * Summary:
 431:Generated_Source\PSoC5/CycleISR.c **** *   Causes the Interrupt to enter the pending state, a software method of
 432:Generated_Source\PSoC5/CycleISR.c **** *   generating the interrupt.
 433:Generated_Source\PSoC5/CycleISR.c **** *
 434:Generated_Source\PSoC5/CycleISR.c **** * Parameters:
 435:Generated_Source\PSoC5/CycleISR.c **** *   None
 436:Generated_Source\PSoC5/CycleISR.c **** *
 437:Generated_Source\PSoC5/CycleISR.c **** * Return:
 438:Generated_Source\PSoC5/CycleISR.c **** *   None
 439:Generated_Source\PSoC5/CycleISR.c **** *
 440:Generated_Source\PSoC5/CycleISR.c **** * Side Effects:
 441:Generated_Source\PSoC5/CycleISR.c **** *   If interrupts are enabled and the interrupt is set up properly, the ISR is
 442:Generated_Source\PSoC5/CycleISR.c **** *   entered (depending on the priority of this interrupt and other pending 
 443:Generated_Source\PSoC5/CycleISR.c **** *   interrupts).
 444:Generated_Source\PSoC5/CycleISR.c **** *
 445:Generated_Source\PSoC5/CycleISR.c **** *******************************************************************************/
 446:Generated_Source\PSoC5/CycleISR.c **** void CycleISR_SetPending(void)
 447:Generated_Source\PSoC5/CycleISR.c **** {
 494              		.loc 1 447 0
 495              		.cfi_startproc
 496              		@ args = 0, pretend = 0, frame = 0
 497              		@ frame_needed = 0, uses_anonymous_args = 0
 498              		@ link register save eliminated.
 448:Generated_Source\PSoC5/CycleISR.c ****     *CycleISR_INTC_SET_PD = CycleISR__INTC_MASK;
 499              		.loc 1 448 0
 500 0000 0422     		movs	r2, #4
 501 0002 014B     		ldr	r3, .L43
 502 0004 1A60     		str	r2, [r3]
 503 0006 7047     		bx	lr
 504              	.L44:
 505              		.align	2
 506              	.L43:
 507 0008 00E200E0 		.word	-536813056
 508              		.cfi_endproc
ARM GAS  C:\Users\chascha\AppData\Local\Temp\cc2Dah4a.s 			page 18


 509              	.LFE12:
 510              		.size	CycleISR_SetPending, .-CycleISR_SetPending
 511              		.section	.text.CycleISR_ClearPending,"ax",%progbits
 512              		.align	2
 513              		.global	CycleISR_ClearPending
 514              		.thumb
 515              		.thumb_func
 516              		.type	CycleISR_ClearPending, %function
 517              	CycleISR_ClearPending:
 518              	.LFB13:
 449:Generated_Source\PSoC5/CycleISR.c **** }
 450:Generated_Source\PSoC5/CycleISR.c **** 
 451:Generated_Source\PSoC5/CycleISR.c **** 
 452:Generated_Source\PSoC5/CycleISR.c **** /*******************************************************************************
 453:Generated_Source\PSoC5/CycleISR.c **** * Function Name: CycleISR_ClearPending
 454:Generated_Source\PSoC5/CycleISR.c **** ********************************************************************************
 455:Generated_Source\PSoC5/CycleISR.c **** *
 456:Generated_Source\PSoC5/CycleISR.c **** * Summary:
 457:Generated_Source\PSoC5/CycleISR.c **** *   Clears a pending interrupt in the interrupt controller.
 458:Generated_Source\PSoC5/CycleISR.c **** *
 459:Generated_Source\PSoC5/CycleISR.c **** *   Note Some interrupt sources are clear-on-read and require the block 
 460:Generated_Source\PSoC5/CycleISR.c **** *   interrupt/status register to be read/cleared with the appropriate block API 
 461:Generated_Source\PSoC5/CycleISR.c **** *   (GPIO, UART, and so on). Otherwise the ISR will continue to remain in 
 462:Generated_Source\PSoC5/CycleISR.c **** *   pending state even though the interrupt itself is cleared using this API.
 463:Generated_Source\PSoC5/CycleISR.c **** *
 464:Generated_Source\PSoC5/CycleISR.c **** * Parameters:
 465:Generated_Source\PSoC5/CycleISR.c **** *   None
 466:Generated_Source\PSoC5/CycleISR.c **** *
 467:Generated_Source\PSoC5/CycleISR.c **** * Return:
 468:Generated_Source\PSoC5/CycleISR.c **** *   None
 469:Generated_Source\PSoC5/CycleISR.c **** *
 470:Generated_Source\PSoC5/CycleISR.c **** *******************************************************************************/
 471:Generated_Source\PSoC5/CycleISR.c **** void CycleISR_ClearPending(void)
 472:Generated_Source\PSoC5/CycleISR.c **** {
 519              		.loc 1 472 0
 520              		.cfi_startproc
 521              		@ args = 0, pretend = 0, frame = 0
 522              		@ frame_needed = 0, uses_anonymous_args = 0
 523              		@ link register save eliminated.
 473:Generated_Source\PSoC5/CycleISR.c ****     *CycleISR_INTC_CLR_PD = CycleISR__INTC_MASK;
 524              		.loc 1 473 0
 525 0000 0422     		movs	r2, #4
 526 0002 014B     		ldr	r3, .L46
 527 0004 1A60     		str	r2, [r3]
 528 0006 7047     		bx	lr
 529              	.L47:
 530              		.align	2
 531              	.L46:
 532 0008 80E200E0 		.word	-536812928
 533              		.cfi_endproc
 534              	.LFE13:
 535              		.size	CycleISR_ClearPending, .-CycleISR_ClearPending
 536              		.comm	buttonID,1,1
 537              		.comm	readPos,1,1
 538              		.global	addre
 539              		.comm	mFlag,1,1
 540              		.comm	mPos,4,4
ARM GAS  C:\Users\chascha\AppData\Local\Temp\cc2Dah4a.s 			page 19


 541              		.comm	FPSmPos,1,1
 542              		.comm	FPSID,1,1
 543              		.section	.rodata.str1.4,"aMS",%progbits,1
 544              		.align	2
 545              	.LC0:
 546 0000 49443A00 		.ascii	"ID:\000"
 547              	.LC1:
 548 0004 256400   		.ascii	"%d\000"
 549 0007 00       		.space	1
 550              	.LC2:
 551 0008 72506F73 		.ascii	"rPos:\000"
 551      3A00
 552 000e 0000     		.space	2
 553              	.LC3:
 554 0010 63506F73 		.ascii	"cPos:\000"
 554      3A00
 555              		.bss
 556              		.set	.LANCHOR0,. + 0
 557              		.type	addre, %object
 558              		.size	addre, 1
 559              	addre:
 560 0000 00       		.space	1
 561              		.text
 562              	.Letext0:
 563              		.file 2 "Generated_Source\\PSoC5/cytypes.h"
 564              		.file 3 "Generated_Source\\PSoC5\\I2C.h"
 565              		.file 4 "Generated_Source\\PSoC5/CyLib.h"
 566              		.file 5 "Generated_Source\\PSoC5\\LCD_I2C_FUNCS.h"
 567              		.file 6 "c:\\program files (x86)\\cypress\\psoc creator\\4.2\\psoc creator\\import\\gnu\\arm\\5.4.