ARM GAS  C:\Users\chascha\AppData\Local\Temp\cctBJds3.s 			page 1


   1              		.syntax unified
   2              		.cpu cortex-m3
   3              		.fpu softvfp
   4              		.eabi_attribute 20, 1
   5              		.eabi_attribute 21, 1
   6              		.eabi_attribute 23, 3
   7              		.eabi_attribute 24, 1
   8              		.eabi_attribute 25, 1
   9              		.eabi_attribute 26, 1
  10              		.eabi_attribute 30, 1
  11              		.eabi_attribute 34, 1
  12              		.eabi_attribute 18, 4
  13              		.thumb
  14              		.syntax unified
  15              		.file	"ICPCK_ISR.c"
  16              		.text
  17              	.Ltext0:
  18              		.cfi_sections	.debug_frame
  19              		.section	.text.ICPCK_ISR_Interrupt,"ax",%progbits
  20              		.align	2
  21              		.global	ICPCK_ISR_Interrupt
  22              		.thumb
  23              		.thumb_func
  24              		.type	ICPCK_ISR_Interrupt, %function
  25              	ICPCK_ISR_Interrupt:
  26              	.LFB4:
  27              		.file 1 "Generated_Source\\PSoC5\\ICPCK_ISR.c"
   1:Generated_Source\PSoC5/ICPCK_ISR.c **** /*******************************************************************************
   2:Generated_Source\PSoC5/ICPCK_ISR.c **** * File Name: ICPCK_ISR.c  
   3:Generated_Source\PSoC5/ICPCK_ISR.c **** * Version 1.71
   4:Generated_Source\PSoC5/ICPCK_ISR.c **** *
   5:Generated_Source\PSoC5/ICPCK_ISR.c **** *  Description:
   6:Generated_Source\PSoC5/ICPCK_ISR.c **** *   API for controlling the state of an interrupt.
   7:Generated_Source\PSoC5/ICPCK_ISR.c **** *
   8:Generated_Source\PSoC5/ICPCK_ISR.c **** *
   9:Generated_Source\PSoC5/ICPCK_ISR.c **** *  Note:
  10:Generated_Source\PSoC5/ICPCK_ISR.c **** *
  11:Generated_Source\PSoC5/ICPCK_ISR.c **** ********************************************************************************
  12:Generated_Source\PSoC5/ICPCK_ISR.c **** * Copyright 2008-2015, Cypress Semiconductor Corporation.  All rights reserved.
  13:Generated_Source\PSoC5/ICPCK_ISR.c **** * You may use this file only in accordance with the license, terms, conditions, 
  14:Generated_Source\PSoC5/ICPCK_ISR.c **** * disclaimers, and limitations in the end user license agreement accompanying 
  15:Generated_Source\PSoC5/ICPCK_ISR.c **** * the software package with which this file was provided.
  16:Generated_Source\PSoC5/ICPCK_ISR.c **** *******************************************************************************/
  17:Generated_Source\PSoC5/ICPCK_ISR.c **** 
  18:Generated_Source\PSoC5/ICPCK_ISR.c **** 
  19:Generated_Source\PSoC5/ICPCK_ISR.c **** #include <cydevice_trm.h>
  20:Generated_Source\PSoC5/ICPCK_ISR.c **** #include <CyLib.h>
  21:Generated_Source\PSoC5/ICPCK_ISR.c **** #include <ICPCK_ISR.h>
  22:Generated_Source\PSoC5/ICPCK_ISR.c **** #include "cyapicallbacks.h"
  23:Generated_Source\PSoC5/ICPCK_ISR.c **** 
  24:Generated_Source\PSoC5/ICPCK_ISR.c **** #if !defined(ICPCK_ISR__REMOVED) /* Check for removal by optimization */
  25:Generated_Source\PSoC5/ICPCK_ISR.c **** 
  26:Generated_Source\PSoC5/ICPCK_ISR.c **** /*******************************************************************************
  27:Generated_Source\PSoC5/ICPCK_ISR.c **** *  Place your includes, defines and code here 
  28:Generated_Source\PSoC5/ICPCK_ISR.c **** ********************************************************************************/
  29:Generated_Source\PSoC5/ICPCK_ISR.c **** /* `#START ICPCK_ISR_intc` */
  30:Generated_Source\PSoC5/ICPCK_ISR.c ****     volatile uint8 buttonID;
ARM GAS  C:\Users\chascha\AppData\Local\Temp\cctBJds3.s 			page 2


  31:Generated_Source\PSoC5/ICPCK_ISR.c ****     volatile uint8 FPSID;
  32:Generated_Source\PSoC5/ICPCK_ISR.c ****     volatile uint8 FPSmPos;
  33:Generated_Source\PSoC5/ICPCK_ISR.c ****     volatile unsigned int mPos;
  34:Generated_Source\PSoC5/ICPCK_ISR.c ****     #include "UART.h"
  35:Generated_Source\PSoC5/ICPCK_ISR.c ****     #include "LCD_I2C_FUNCS.h"
  36:Generated_Source\PSoC5/ICPCK_ISR.c ****     #include "I2C.h"
  37:Generated_Source\PSoC5/ICPCK_ISR.c ****     #include "stdio.h"
  38:Generated_Source\PSoC5/ICPCK_ISR.c **** 
  39:Generated_Source\PSoC5/ICPCK_ISR.c **** /* `#END` */
  40:Generated_Source\PSoC5/ICPCK_ISR.c **** 
  41:Generated_Source\PSoC5/ICPCK_ISR.c **** #ifndef CYINT_IRQ_BASE
  42:Generated_Source\PSoC5/ICPCK_ISR.c **** #define CYINT_IRQ_BASE      16
  43:Generated_Source\PSoC5/ICPCK_ISR.c **** #endif /* CYINT_IRQ_BASE */
  44:Generated_Source\PSoC5/ICPCK_ISR.c **** #ifndef CYINT_VECT_TABLE
  45:Generated_Source\PSoC5/ICPCK_ISR.c **** #define CYINT_VECT_TABLE    ((cyisraddress **) CYREG_NVIC_VECT_OFFSET)
  46:Generated_Source\PSoC5/ICPCK_ISR.c **** #endif /* CYINT_VECT_TABLE */
  47:Generated_Source\PSoC5/ICPCK_ISR.c **** 
  48:Generated_Source\PSoC5/ICPCK_ISR.c **** /* Declared in startup, used to set unused interrupts to. */
  49:Generated_Source\PSoC5/ICPCK_ISR.c **** CY_ISR_PROTO(IntDefaultHandler);
  50:Generated_Source\PSoC5/ICPCK_ISR.c **** 
  51:Generated_Source\PSoC5/ICPCK_ISR.c **** 
  52:Generated_Source\PSoC5/ICPCK_ISR.c **** /*******************************************************************************
  53:Generated_Source\PSoC5/ICPCK_ISR.c **** * Function Name: ICPCK_ISR_Start
  54:Generated_Source\PSoC5/ICPCK_ISR.c **** ********************************************************************************
  55:Generated_Source\PSoC5/ICPCK_ISR.c **** *
  56:Generated_Source\PSoC5/ICPCK_ISR.c **** * Summary:
  57:Generated_Source\PSoC5/ICPCK_ISR.c **** *  Set up the interrupt and enable it. This function disables the interrupt, 
  58:Generated_Source\PSoC5/ICPCK_ISR.c **** *  sets the default interrupt vector, sets the priority from the value in the
  59:Generated_Source\PSoC5/ICPCK_ISR.c **** *  Design Wide Resources Interrupt Editor, then enables the interrupt to the 
  60:Generated_Source\PSoC5/ICPCK_ISR.c **** *  interrupt controller.
  61:Generated_Source\PSoC5/ICPCK_ISR.c **** *
  62:Generated_Source\PSoC5/ICPCK_ISR.c **** * Parameters:  
  63:Generated_Source\PSoC5/ICPCK_ISR.c **** *   None
  64:Generated_Source\PSoC5/ICPCK_ISR.c **** *
  65:Generated_Source\PSoC5/ICPCK_ISR.c **** * Return:
  66:Generated_Source\PSoC5/ICPCK_ISR.c **** *   None
  67:Generated_Source\PSoC5/ICPCK_ISR.c **** *
  68:Generated_Source\PSoC5/ICPCK_ISR.c **** *******************************************************************************/
  69:Generated_Source\PSoC5/ICPCK_ISR.c **** void ICPCK_ISR_Start(void)
  70:Generated_Source\PSoC5/ICPCK_ISR.c **** {
  71:Generated_Source\PSoC5/ICPCK_ISR.c ****     /* For all we know the interrupt is active. */
  72:Generated_Source\PSoC5/ICPCK_ISR.c ****     ICPCK_ISR_Disable();
  73:Generated_Source\PSoC5/ICPCK_ISR.c **** 
  74:Generated_Source\PSoC5/ICPCK_ISR.c ****     /* Set the ISR to point to the ICPCK_ISR Interrupt. */
  75:Generated_Source\PSoC5/ICPCK_ISR.c ****     ICPCK_ISR_SetVector(&ICPCK_ISR_Interrupt);
  76:Generated_Source\PSoC5/ICPCK_ISR.c **** 
  77:Generated_Source\PSoC5/ICPCK_ISR.c ****     /* Set the priority. */
  78:Generated_Source\PSoC5/ICPCK_ISR.c ****     ICPCK_ISR_SetPriority((uint8)ICPCK_ISR_INTC_PRIOR_NUMBER);
  79:Generated_Source\PSoC5/ICPCK_ISR.c **** 
  80:Generated_Source\PSoC5/ICPCK_ISR.c ****     /* Enable it. */
  81:Generated_Source\PSoC5/ICPCK_ISR.c ****     ICPCK_ISR_Enable();
  82:Generated_Source\PSoC5/ICPCK_ISR.c **** }
  83:Generated_Source\PSoC5/ICPCK_ISR.c **** 
  84:Generated_Source\PSoC5/ICPCK_ISR.c **** 
  85:Generated_Source\PSoC5/ICPCK_ISR.c **** /*******************************************************************************
  86:Generated_Source\PSoC5/ICPCK_ISR.c **** * Function Name: ICPCK_ISR_StartEx
  87:Generated_Source\PSoC5/ICPCK_ISR.c **** ********************************************************************************
ARM GAS  C:\Users\chascha\AppData\Local\Temp\cctBJds3.s 			page 3


  88:Generated_Source\PSoC5/ICPCK_ISR.c **** *
  89:Generated_Source\PSoC5/ICPCK_ISR.c **** * Summary:
  90:Generated_Source\PSoC5/ICPCK_ISR.c **** *  Sets up the interrupt and enables it. This function disables the interrupt,
  91:Generated_Source\PSoC5/ICPCK_ISR.c **** *  sets the interrupt vector based on the address passed in, sets the priority 
  92:Generated_Source\PSoC5/ICPCK_ISR.c **** *  from the value in the Design Wide Resources Interrupt Editor, then enables 
  93:Generated_Source\PSoC5/ICPCK_ISR.c **** *  the interrupt to the interrupt controller.
  94:Generated_Source\PSoC5/ICPCK_ISR.c **** *  
  95:Generated_Source\PSoC5/ICPCK_ISR.c **** *  When defining ISR functions, the CY_ISR and CY_ISR_PROTO macros should be 
  96:Generated_Source\PSoC5/ICPCK_ISR.c **** *  used to provide consistent definition across compilers:
  97:Generated_Source\PSoC5/ICPCK_ISR.c **** *  
  98:Generated_Source\PSoC5/ICPCK_ISR.c **** *  Function definition example:
  99:Generated_Source\PSoC5/ICPCK_ISR.c **** *   CY_ISR(MyISR)
 100:Generated_Source\PSoC5/ICPCK_ISR.c **** *   {
 101:Generated_Source\PSoC5/ICPCK_ISR.c **** *   }
 102:Generated_Source\PSoC5/ICPCK_ISR.c **** *   Function prototype example:
 103:Generated_Source\PSoC5/ICPCK_ISR.c **** *   CY_ISR_PROTO(MyISR);
 104:Generated_Source\PSoC5/ICPCK_ISR.c **** *
 105:Generated_Source\PSoC5/ICPCK_ISR.c **** * Parameters:  
 106:Generated_Source\PSoC5/ICPCK_ISR.c **** *   address: Address of the ISR to set in the interrupt vector table.
 107:Generated_Source\PSoC5/ICPCK_ISR.c **** *
 108:Generated_Source\PSoC5/ICPCK_ISR.c **** * Return:
 109:Generated_Source\PSoC5/ICPCK_ISR.c **** *   None
 110:Generated_Source\PSoC5/ICPCK_ISR.c **** *
 111:Generated_Source\PSoC5/ICPCK_ISR.c **** *******************************************************************************/
 112:Generated_Source\PSoC5/ICPCK_ISR.c **** void ICPCK_ISR_StartEx(cyisraddress address)
 113:Generated_Source\PSoC5/ICPCK_ISR.c **** {
 114:Generated_Source\PSoC5/ICPCK_ISR.c ****     /* For all we know the interrupt is active. */
 115:Generated_Source\PSoC5/ICPCK_ISR.c ****     ICPCK_ISR_Disable();
 116:Generated_Source\PSoC5/ICPCK_ISR.c **** 
 117:Generated_Source\PSoC5/ICPCK_ISR.c ****     /* Set the ISR to point to the ICPCK_ISR Interrupt. */
 118:Generated_Source\PSoC5/ICPCK_ISR.c ****     ICPCK_ISR_SetVector(address);
 119:Generated_Source\PSoC5/ICPCK_ISR.c **** 
 120:Generated_Source\PSoC5/ICPCK_ISR.c ****     /* Set the priority. */
 121:Generated_Source\PSoC5/ICPCK_ISR.c ****     ICPCK_ISR_SetPriority((uint8)ICPCK_ISR_INTC_PRIOR_NUMBER);
 122:Generated_Source\PSoC5/ICPCK_ISR.c **** 
 123:Generated_Source\PSoC5/ICPCK_ISR.c ****     /* Enable it. */
 124:Generated_Source\PSoC5/ICPCK_ISR.c ****     ICPCK_ISR_Enable();
 125:Generated_Source\PSoC5/ICPCK_ISR.c **** }
 126:Generated_Source\PSoC5/ICPCK_ISR.c **** 
 127:Generated_Source\PSoC5/ICPCK_ISR.c **** 
 128:Generated_Source\PSoC5/ICPCK_ISR.c **** /*******************************************************************************
 129:Generated_Source\PSoC5/ICPCK_ISR.c **** * Function Name: ICPCK_ISR_Stop
 130:Generated_Source\PSoC5/ICPCK_ISR.c **** ********************************************************************************
 131:Generated_Source\PSoC5/ICPCK_ISR.c **** *
 132:Generated_Source\PSoC5/ICPCK_ISR.c **** * Summary:
 133:Generated_Source\PSoC5/ICPCK_ISR.c **** *   Disables and removes the interrupt.
 134:Generated_Source\PSoC5/ICPCK_ISR.c **** *
 135:Generated_Source\PSoC5/ICPCK_ISR.c **** * Parameters:  
 136:Generated_Source\PSoC5/ICPCK_ISR.c **** *   None
 137:Generated_Source\PSoC5/ICPCK_ISR.c **** *
 138:Generated_Source\PSoC5/ICPCK_ISR.c **** * Return:
 139:Generated_Source\PSoC5/ICPCK_ISR.c **** *   None
 140:Generated_Source\PSoC5/ICPCK_ISR.c **** *
 141:Generated_Source\PSoC5/ICPCK_ISR.c **** *******************************************************************************/
 142:Generated_Source\PSoC5/ICPCK_ISR.c **** void ICPCK_ISR_Stop(void)
 143:Generated_Source\PSoC5/ICPCK_ISR.c **** {
 144:Generated_Source\PSoC5/ICPCK_ISR.c ****     /* Disable this interrupt. */
ARM GAS  C:\Users\chascha\AppData\Local\Temp\cctBJds3.s 			page 4


 145:Generated_Source\PSoC5/ICPCK_ISR.c ****     ICPCK_ISR_Disable();
 146:Generated_Source\PSoC5/ICPCK_ISR.c **** 
 147:Generated_Source\PSoC5/ICPCK_ISR.c ****     /* Set the ISR to point to the passive one. */
 148:Generated_Source\PSoC5/ICPCK_ISR.c ****     ICPCK_ISR_SetVector(&IntDefaultHandler);
 149:Generated_Source\PSoC5/ICPCK_ISR.c **** }
 150:Generated_Source\PSoC5/ICPCK_ISR.c **** 
 151:Generated_Source\PSoC5/ICPCK_ISR.c **** 
 152:Generated_Source\PSoC5/ICPCK_ISR.c **** /*******************************************************************************
 153:Generated_Source\PSoC5/ICPCK_ISR.c **** * Function Name: ICPCK_ISR_Interrupt
 154:Generated_Source\PSoC5/ICPCK_ISR.c **** ********************************************************************************
 155:Generated_Source\PSoC5/ICPCK_ISR.c **** *
 156:Generated_Source\PSoC5/ICPCK_ISR.c **** * Summary:
 157:Generated_Source\PSoC5/ICPCK_ISR.c **** *   The default Interrupt Service Routine for ICPCK_ISR.
 158:Generated_Source\PSoC5/ICPCK_ISR.c **** *
 159:Generated_Source\PSoC5/ICPCK_ISR.c **** *   Add custom code between the coments to keep the next version of this file
 160:Generated_Source\PSoC5/ICPCK_ISR.c **** *   from over writting your code.
 161:Generated_Source\PSoC5/ICPCK_ISR.c **** *
 162:Generated_Source\PSoC5/ICPCK_ISR.c **** * Parameters:  
 163:Generated_Source\PSoC5/ICPCK_ISR.c **** *
 164:Generated_Source\PSoC5/ICPCK_ISR.c **** * Return:
 165:Generated_Source\PSoC5/ICPCK_ISR.c **** *   None
 166:Generated_Source\PSoC5/ICPCK_ISR.c **** *
 167:Generated_Source\PSoC5/ICPCK_ISR.c **** *******************************************************************************/
 168:Generated_Source\PSoC5/ICPCK_ISR.c **** CY_ISR(ICPCK_ISR_Interrupt)
 169:Generated_Source\PSoC5/ICPCK_ISR.c **** {
  28              		.loc 1 169 0
  29              		.cfi_startproc
  30              		@ args = 0, pretend = 0, frame = 0
  31              		@ frame_needed = 0, uses_anonymous_args = 0
  32 0000 08B5     		push	{r3, lr}
  33              		.cfi_def_cfa_offset 8
  34              		.cfi_offset 3, -8
  35              		.cfi_offset 14, -4
 170:Generated_Source\PSoC5/ICPCK_ISR.c ****     #ifdef ICPCK_ISR_INTERRUPT_INTERRUPT_CALLBACK
 171:Generated_Source\PSoC5/ICPCK_ISR.c ****         ICPCK_ISR_Interrupt_InterruptCallback();
 172:Generated_Source\PSoC5/ICPCK_ISR.c ****     #endif /* ICPCK_ISR_INTERRUPT_INTERRUPT_CALLBACK */ 
 173:Generated_Source\PSoC5/ICPCK_ISR.c **** 
 174:Generated_Source\PSoC5/ICPCK_ISR.c ****     /*  Place your Interrupt code here. */
 175:Generated_Source\PSoC5/ICPCK_ISR.c ****     /* `#START ICPCK_ISR_Interrupt` */
 176:Generated_Source\PSoC5/ICPCK_ISR.c ****     if(buttonID == 10)
  36              		.loc 1 176 0
  37 0002 084B     		ldr	r3, .L4
  38 0004 1B78     		ldrb	r3, [r3]	@ zero_extendqisi2
  39 0006 DBB2     		uxtb	r3, r3
  40 0008 0A2B     		cmp	r3, #10
  41 000a 02D1     		bne	.L2
 177:Generated_Source\PSoC5/ICPCK_ISR.c ****     {
 178:Generated_Source\PSoC5/ICPCK_ISR.c ****         buttonID = 0;   
  42              		.loc 1 178 0
  43 000c 0022     		movs	r2, #0
  44 000e 054B     		ldr	r3, .L4
  45 0010 1A70     		strb	r2, [r3]
  46              	.L2:
 179:Generated_Source\PSoC5/ICPCK_ISR.c ****     }
 180:Generated_Source\PSoC5/ICPCK_ISR.c **** 
 181:Generated_Source\PSoC5/ICPCK_ISR.c ****     buttonID++;
  47              		.loc 1 181 0
ARM GAS  C:\Users\chascha\AppData\Local\Temp\cctBJds3.s 			page 5


  48 0012 044A     		ldr	r2, .L4
  49 0014 1378     		ldrb	r3, [r2]	@ zero_extendqisi2
  50 0016 0133     		adds	r3, r3, #1
  51 0018 DBB2     		uxtb	r3, r3
  52 001a 1370     		strb	r3, [r2]
 182:Generated_Source\PSoC5/ICPCK_ISR.c ****     I2C_Start();
  53              		.loc 1 182 0
  54 001c FFF7FEFF 		bl	I2C_Start
  55              	.LVL0:
  56 0020 08BD     		pop	{r3, pc}
  57              	.L5:
  58 0022 00BF     		.align	2
  59              	.L4:
  60 0024 00000000 		.word	buttonID
  61              		.cfi_endproc
  62              	.LFE4:
  63              		.size	ICPCK_ISR_Interrupt, .-ICPCK_ISR_Interrupt
  64              		.section	.text.ICPCK_ISR_SetVector,"ax",%progbits
  65              		.align	2
  66              		.global	ICPCK_ISR_SetVector
  67              		.thumb
  68              		.thumb_func
  69              		.type	ICPCK_ISR_SetVector, %function
  70              	ICPCK_ISR_SetVector:
  71              	.LFB5:
 183:Generated_Source\PSoC5/ICPCK_ISR.c ****     
 184:Generated_Source\PSoC5/ICPCK_ISR.c ****     
 185:Generated_Source\PSoC5/ICPCK_ISR.c ****     /* `#END` */
 186:Generated_Source\PSoC5/ICPCK_ISR.c **** }
 187:Generated_Source\PSoC5/ICPCK_ISR.c **** 
 188:Generated_Source\PSoC5/ICPCK_ISR.c **** 
 189:Generated_Source\PSoC5/ICPCK_ISR.c **** /*******************************************************************************
 190:Generated_Source\PSoC5/ICPCK_ISR.c **** * Function Name: ICPCK_ISR_SetVector
 191:Generated_Source\PSoC5/ICPCK_ISR.c **** ********************************************************************************
 192:Generated_Source\PSoC5/ICPCK_ISR.c **** *
 193:Generated_Source\PSoC5/ICPCK_ISR.c **** * Summary:
 194:Generated_Source\PSoC5/ICPCK_ISR.c **** *   Change the ISR vector for the Interrupt. Note calling ICPCK_ISR_Start
 195:Generated_Source\PSoC5/ICPCK_ISR.c **** *   will override any effect this method would have had. To set the vector 
 196:Generated_Source\PSoC5/ICPCK_ISR.c **** *   before the component has been started use ICPCK_ISR_StartEx instead.
 197:Generated_Source\PSoC5/ICPCK_ISR.c **** * 
 198:Generated_Source\PSoC5/ICPCK_ISR.c **** *   When defining ISR functions, the CY_ISR and CY_ISR_PROTO macros should be 
 199:Generated_Source\PSoC5/ICPCK_ISR.c **** *   used to provide consistent definition across compilers:
 200:Generated_Source\PSoC5/ICPCK_ISR.c **** *
 201:Generated_Source\PSoC5/ICPCK_ISR.c **** *   Function definition example:
 202:Generated_Source\PSoC5/ICPCK_ISR.c **** *   CY_ISR(MyISR)
 203:Generated_Source\PSoC5/ICPCK_ISR.c **** *   {
 204:Generated_Source\PSoC5/ICPCK_ISR.c **** *   }
 205:Generated_Source\PSoC5/ICPCK_ISR.c **** *
 206:Generated_Source\PSoC5/ICPCK_ISR.c **** *   Function prototype example:
 207:Generated_Source\PSoC5/ICPCK_ISR.c **** *     CY_ISR_PROTO(MyISR);
 208:Generated_Source\PSoC5/ICPCK_ISR.c **** *
 209:Generated_Source\PSoC5/ICPCK_ISR.c **** * Parameters:
 210:Generated_Source\PSoC5/ICPCK_ISR.c **** *   address: Address of the ISR to set in the interrupt vector table.
 211:Generated_Source\PSoC5/ICPCK_ISR.c **** *
 212:Generated_Source\PSoC5/ICPCK_ISR.c **** * Return:
 213:Generated_Source\PSoC5/ICPCK_ISR.c **** *   None
 214:Generated_Source\PSoC5/ICPCK_ISR.c **** *
ARM GAS  C:\Users\chascha\AppData\Local\Temp\cctBJds3.s 			page 6


 215:Generated_Source\PSoC5/ICPCK_ISR.c **** *******************************************************************************/
 216:Generated_Source\PSoC5/ICPCK_ISR.c **** void ICPCK_ISR_SetVector(cyisraddress address)
 217:Generated_Source\PSoC5/ICPCK_ISR.c **** {
  72              		.loc 1 217 0
  73              		.cfi_startproc
  74              		@ args = 0, pretend = 0, frame = 0
  75              		@ frame_needed = 0, uses_anonymous_args = 0
  76              		@ link register save eliminated.
  77              	.LVL1:
 218:Generated_Source\PSoC5/ICPCK_ISR.c ****     cyisraddress * ramVectorTable;
 219:Generated_Source\PSoC5/ICPCK_ISR.c **** 
 220:Generated_Source\PSoC5/ICPCK_ISR.c ****     ramVectorTable = (cyisraddress *) *CYINT_VECT_TABLE;
  78              		.loc 1 220 0
  79 0000 014B     		ldr	r3, .L7
  80 0002 1B68     		ldr	r3, [r3]
  81              	.LVL2:
 221:Generated_Source\PSoC5/ICPCK_ISR.c **** 
 222:Generated_Source\PSoC5/ICPCK_ISR.c ****     ramVectorTable[CYINT_IRQ_BASE + (uint32)ICPCK_ISR__INTC_NUMBER] = address;
  82              		.loc 1 222 0
  83 0004 1865     		str	r0, [r3, #80]
  84 0006 7047     		bx	lr
  85              	.L8:
  86              		.align	2
  87              	.L7:
  88 0008 08ED00E0 		.word	-536810232
  89              		.cfi_endproc
  90              	.LFE5:
  91              		.size	ICPCK_ISR_SetVector, .-ICPCK_ISR_SetVector
  92              		.section	.text.ICPCK_ISR_GetVector,"ax",%progbits
  93              		.align	2
  94              		.global	ICPCK_ISR_GetVector
  95              		.thumb
  96              		.thumb_func
  97              		.type	ICPCK_ISR_GetVector, %function
  98              	ICPCK_ISR_GetVector:
  99              	.LFB6:
 223:Generated_Source\PSoC5/ICPCK_ISR.c **** }
 224:Generated_Source\PSoC5/ICPCK_ISR.c **** 
 225:Generated_Source\PSoC5/ICPCK_ISR.c **** 
 226:Generated_Source\PSoC5/ICPCK_ISR.c **** /*******************************************************************************
 227:Generated_Source\PSoC5/ICPCK_ISR.c **** * Function Name: ICPCK_ISR_GetVector
 228:Generated_Source\PSoC5/ICPCK_ISR.c **** ********************************************************************************
 229:Generated_Source\PSoC5/ICPCK_ISR.c **** *
 230:Generated_Source\PSoC5/ICPCK_ISR.c **** * Summary:
 231:Generated_Source\PSoC5/ICPCK_ISR.c **** *   Gets the "address" of the current ISR vector for the Interrupt.
 232:Generated_Source\PSoC5/ICPCK_ISR.c **** *
 233:Generated_Source\PSoC5/ICPCK_ISR.c **** * Parameters:
 234:Generated_Source\PSoC5/ICPCK_ISR.c **** *   None
 235:Generated_Source\PSoC5/ICPCK_ISR.c **** *
 236:Generated_Source\PSoC5/ICPCK_ISR.c **** * Return:
 237:Generated_Source\PSoC5/ICPCK_ISR.c **** *   Address of the ISR in the interrupt vector table.
 238:Generated_Source\PSoC5/ICPCK_ISR.c **** *
 239:Generated_Source\PSoC5/ICPCK_ISR.c **** *******************************************************************************/
 240:Generated_Source\PSoC5/ICPCK_ISR.c **** cyisraddress ICPCK_ISR_GetVector(void)
 241:Generated_Source\PSoC5/ICPCK_ISR.c **** {
 100              		.loc 1 241 0
 101              		.cfi_startproc
ARM GAS  C:\Users\chascha\AppData\Local\Temp\cctBJds3.s 			page 7


 102              		@ args = 0, pretend = 0, frame = 0
 103              		@ frame_needed = 0, uses_anonymous_args = 0
 104              		@ link register save eliminated.
 242:Generated_Source\PSoC5/ICPCK_ISR.c ****     cyisraddress * ramVectorTable;
 243:Generated_Source\PSoC5/ICPCK_ISR.c **** 
 244:Generated_Source\PSoC5/ICPCK_ISR.c ****     ramVectorTable = (cyisraddress *) *CYINT_VECT_TABLE;
 105              		.loc 1 244 0
 106 0000 014B     		ldr	r3, .L10
 107 0002 1B68     		ldr	r3, [r3]
 108              	.LVL3:
 245:Generated_Source\PSoC5/ICPCK_ISR.c **** 
 246:Generated_Source\PSoC5/ICPCK_ISR.c ****     return ramVectorTable[CYINT_IRQ_BASE + (uint32)ICPCK_ISR__INTC_NUMBER];
 247:Generated_Source\PSoC5/ICPCK_ISR.c **** }
 109              		.loc 1 247 0
 110 0004 186D     		ldr	r0, [r3, #80]
 111 0006 7047     		bx	lr
 112              	.L11:
 113              		.align	2
 114              	.L10:
 115 0008 08ED00E0 		.word	-536810232
 116              		.cfi_endproc
 117              	.LFE6:
 118              		.size	ICPCK_ISR_GetVector, .-ICPCK_ISR_GetVector
 119              		.section	.text.ICPCK_ISR_SetPriority,"ax",%progbits
 120              		.align	2
 121              		.global	ICPCK_ISR_SetPriority
 122              		.thumb
 123              		.thumb_func
 124              		.type	ICPCK_ISR_SetPriority, %function
 125              	ICPCK_ISR_SetPriority:
 126              	.LFB7:
 248:Generated_Source\PSoC5/ICPCK_ISR.c **** 
 249:Generated_Source\PSoC5/ICPCK_ISR.c **** 
 250:Generated_Source\PSoC5/ICPCK_ISR.c **** /*******************************************************************************
 251:Generated_Source\PSoC5/ICPCK_ISR.c **** * Function Name: ICPCK_ISR_SetPriority
 252:Generated_Source\PSoC5/ICPCK_ISR.c **** ********************************************************************************
 253:Generated_Source\PSoC5/ICPCK_ISR.c **** *
 254:Generated_Source\PSoC5/ICPCK_ISR.c **** * Summary:
 255:Generated_Source\PSoC5/ICPCK_ISR.c **** *   Sets the Priority of the Interrupt. 
 256:Generated_Source\PSoC5/ICPCK_ISR.c **** *
 257:Generated_Source\PSoC5/ICPCK_ISR.c **** *   Note calling ICPCK_ISR_Start or ICPCK_ISR_StartEx will 
 258:Generated_Source\PSoC5/ICPCK_ISR.c **** *   override any effect this API would have had. This API should only be called
 259:Generated_Source\PSoC5/ICPCK_ISR.c **** *   after ICPCK_ISR_Start or ICPCK_ISR_StartEx has been called. 
 260:Generated_Source\PSoC5/ICPCK_ISR.c **** *   To set the initial priority for the component, use the Design-Wide Resources
 261:Generated_Source\PSoC5/ICPCK_ISR.c **** *   Interrupt Editor.
 262:Generated_Source\PSoC5/ICPCK_ISR.c **** *
 263:Generated_Source\PSoC5/ICPCK_ISR.c **** *   Note This API has no effect on Non-maskable interrupt NMI).
 264:Generated_Source\PSoC5/ICPCK_ISR.c **** *
 265:Generated_Source\PSoC5/ICPCK_ISR.c **** * Parameters:
 266:Generated_Source\PSoC5/ICPCK_ISR.c **** *   priority: Priority of the interrupt, 0 being the highest priority
 267:Generated_Source\PSoC5/ICPCK_ISR.c **** *             PSoC 3 and PSoC 5LP: Priority is from 0 to 7.
 268:Generated_Source\PSoC5/ICPCK_ISR.c **** *             PSoC 4: Priority is from 0 to 3.
 269:Generated_Source\PSoC5/ICPCK_ISR.c **** *
 270:Generated_Source\PSoC5/ICPCK_ISR.c **** * Return:
 271:Generated_Source\PSoC5/ICPCK_ISR.c **** *   None
 272:Generated_Source\PSoC5/ICPCK_ISR.c **** *
 273:Generated_Source\PSoC5/ICPCK_ISR.c **** *******************************************************************************/
ARM GAS  C:\Users\chascha\AppData\Local\Temp\cctBJds3.s 			page 8


 274:Generated_Source\PSoC5/ICPCK_ISR.c **** void ICPCK_ISR_SetPriority(uint8 priority)
 275:Generated_Source\PSoC5/ICPCK_ISR.c **** {
 127              		.loc 1 275 0
 128              		.cfi_startproc
 129              		@ args = 0, pretend = 0, frame = 0
 130              		@ frame_needed = 0, uses_anonymous_args = 0
 131              		@ link register save eliminated.
 132              	.LVL4:
 276:Generated_Source\PSoC5/ICPCK_ISR.c ****     *ICPCK_ISR_INTC_PRIOR = priority << 5;
 133              		.loc 1 276 0
 134 0000 4001     		lsls	r0, r0, #5
 135              	.LVL5:
 136 0002 C0B2     		uxtb	r0, r0
 137 0004 014B     		ldr	r3, .L13
 138 0006 1870     		strb	r0, [r3]
 139 0008 7047     		bx	lr
 140              	.L14:
 141 000a 00BF     		.align	2
 142              	.L13:
 143 000c 04E400E0 		.word	-536812540
 144              		.cfi_endproc
 145              	.LFE7:
 146              		.size	ICPCK_ISR_SetPriority, .-ICPCK_ISR_SetPriority
 147              		.section	.text.ICPCK_ISR_GetPriority,"ax",%progbits
 148              		.align	2
 149              		.global	ICPCK_ISR_GetPriority
 150              		.thumb
 151              		.thumb_func
 152              		.type	ICPCK_ISR_GetPriority, %function
 153              	ICPCK_ISR_GetPriority:
 154              	.LFB8:
 277:Generated_Source\PSoC5/ICPCK_ISR.c **** }
 278:Generated_Source\PSoC5/ICPCK_ISR.c **** 
 279:Generated_Source\PSoC5/ICPCK_ISR.c **** 
 280:Generated_Source\PSoC5/ICPCK_ISR.c **** /*******************************************************************************
 281:Generated_Source\PSoC5/ICPCK_ISR.c **** * Function Name: ICPCK_ISR_GetPriority
 282:Generated_Source\PSoC5/ICPCK_ISR.c **** ********************************************************************************
 283:Generated_Source\PSoC5/ICPCK_ISR.c **** *
 284:Generated_Source\PSoC5/ICPCK_ISR.c **** * Summary:
 285:Generated_Source\PSoC5/ICPCK_ISR.c **** *   Gets the Priority of the Interrupt.
 286:Generated_Source\PSoC5/ICPCK_ISR.c **** *
 287:Generated_Source\PSoC5/ICPCK_ISR.c **** * Parameters:
 288:Generated_Source\PSoC5/ICPCK_ISR.c **** *   None
 289:Generated_Source\PSoC5/ICPCK_ISR.c **** *
 290:Generated_Source\PSoC5/ICPCK_ISR.c **** * Return:
 291:Generated_Source\PSoC5/ICPCK_ISR.c **** *   Priority of the interrupt, 0 being the highest priority
 292:Generated_Source\PSoC5/ICPCK_ISR.c **** *    PSoC 3 and PSoC 5LP: Priority is from 0 to 7.
 293:Generated_Source\PSoC5/ICPCK_ISR.c **** *    PSoC 4: Priority is from 0 to 3.
 294:Generated_Source\PSoC5/ICPCK_ISR.c **** *
 295:Generated_Source\PSoC5/ICPCK_ISR.c **** *******************************************************************************/
 296:Generated_Source\PSoC5/ICPCK_ISR.c **** uint8 ICPCK_ISR_GetPriority(void)
 297:Generated_Source\PSoC5/ICPCK_ISR.c **** {
 155              		.loc 1 297 0
 156              		.cfi_startproc
 157              		@ args = 0, pretend = 0, frame = 0
 158              		@ frame_needed = 0, uses_anonymous_args = 0
 159              		@ link register save eliminated.
ARM GAS  C:\Users\chascha\AppData\Local\Temp\cctBJds3.s 			page 9


 298:Generated_Source\PSoC5/ICPCK_ISR.c ****     uint8 priority;
 299:Generated_Source\PSoC5/ICPCK_ISR.c **** 
 300:Generated_Source\PSoC5/ICPCK_ISR.c **** 
 301:Generated_Source\PSoC5/ICPCK_ISR.c ****     priority = *ICPCK_ISR_INTC_PRIOR >> 5;
 160              		.loc 1 301 0
 161 0000 014B     		ldr	r3, .L16
 162 0002 1878     		ldrb	r0, [r3]	@ zero_extendqisi2
 163              	.LVL6:
 302:Generated_Source\PSoC5/ICPCK_ISR.c **** 
 303:Generated_Source\PSoC5/ICPCK_ISR.c ****     return priority;
 304:Generated_Source\PSoC5/ICPCK_ISR.c **** }
 164              		.loc 1 304 0
 165 0004 4009     		lsrs	r0, r0, #5
 166              	.LVL7:
 167 0006 7047     		bx	lr
 168              	.L17:
 169              		.align	2
 170              	.L16:
 171 0008 04E400E0 		.word	-536812540
 172              		.cfi_endproc
 173              	.LFE8:
 174              		.size	ICPCK_ISR_GetPriority, .-ICPCK_ISR_GetPriority
 175              		.section	.text.ICPCK_ISR_Enable,"ax",%progbits
 176              		.align	2
 177              		.global	ICPCK_ISR_Enable
 178              		.thumb
 179              		.thumb_func
 180              		.type	ICPCK_ISR_Enable, %function
 181              	ICPCK_ISR_Enable:
 182              	.LFB9:
 305:Generated_Source\PSoC5/ICPCK_ISR.c **** 
 306:Generated_Source\PSoC5/ICPCK_ISR.c **** 
 307:Generated_Source\PSoC5/ICPCK_ISR.c **** /*******************************************************************************
 308:Generated_Source\PSoC5/ICPCK_ISR.c **** * Function Name: ICPCK_ISR_Enable
 309:Generated_Source\PSoC5/ICPCK_ISR.c **** ********************************************************************************
 310:Generated_Source\PSoC5/ICPCK_ISR.c **** *
 311:Generated_Source\PSoC5/ICPCK_ISR.c **** * Summary:
 312:Generated_Source\PSoC5/ICPCK_ISR.c **** *   Enables the interrupt to the interrupt controller. Do not call this function
 313:Generated_Source\PSoC5/ICPCK_ISR.c **** *   unless ISR_Start() has been called or the functionality of the ISR_Start() 
 314:Generated_Source\PSoC5/ICPCK_ISR.c **** *   function, which sets the vector and the priority, has been called.
 315:Generated_Source\PSoC5/ICPCK_ISR.c **** *
 316:Generated_Source\PSoC5/ICPCK_ISR.c **** * Parameters:
 317:Generated_Source\PSoC5/ICPCK_ISR.c **** *   None
 318:Generated_Source\PSoC5/ICPCK_ISR.c **** *
 319:Generated_Source\PSoC5/ICPCK_ISR.c **** * Return:
 320:Generated_Source\PSoC5/ICPCK_ISR.c **** *   None
 321:Generated_Source\PSoC5/ICPCK_ISR.c **** *
 322:Generated_Source\PSoC5/ICPCK_ISR.c **** *******************************************************************************/
 323:Generated_Source\PSoC5/ICPCK_ISR.c **** void ICPCK_ISR_Enable(void)
 324:Generated_Source\PSoC5/ICPCK_ISR.c **** {
 183              		.loc 1 324 0
 184              		.cfi_startproc
 185              		@ args = 0, pretend = 0, frame = 0
 186              		@ frame_needed = 0, uses_anonymous_args = 0
 187              		@ link register save eliminated.
 325:Generated_Source\PSoC5/ICPCK_ISR.c ****     /* Enable the general interrupt. */
 326:Generated_Source\PSoC5/ICPCK_ISR.c ****     *ICPCK_ISR_INTC_SET_EN = ICPCK_ISR__INTC_MASK;
ARM GAS  C:\Users\chascha\AppData\Local\Temp\cctBJds3.s 			page 10


 188              		.loc 1 326 0
 189 0000 1022     		movs	r2, #16
 190 0002 014B     		ldr	r3, .L19
 191 0004 1A60     		str	r2, [r3]
 192 0006 7047     		bx	lr
 193              	.L20:
 194              		.align	2
 195              	.L19:
 196 0008 00E100E0 		.word	-536813312
 197              		.cfi_endproc
 198              	.LFE9:
 199              		.size	ICPCK_ISR_Enable, .-ICPCK_ISR_Enable
 200              		.section	.text.ICPCK_ISR_GetState,"ax",%progbits
 201              		.align	2
 202              		.global	ICPCK_ISR_GetState
 203              		.thumb
 204              		.thumb_func
 205              		.type	ICPCK_ISR_GetState, %function
 206              	ICPCK_ISR_GetState:
 207              	.LFB10:
 327:Generated_Source\PSoC5/ICPCK_ISR.c **** }
 328:Generated_Source\PSoC5/ICPCK_ISR.c **** 
 329:Generated_Source\PSoC5/ICPCK_ISR.c **** 
 330:Generated_Source\PSoC5/ICPCK_ISR.c **** /*******************************************************************************
 331:Generated_Source\PSoC5/ICPCK_ISR.c **** * Function Name: ICPCK_ISR_GetState
 332:Generated_Source\PSoC5/ICPCK_ISR.c **** ********************************************************************************
 333:Generated_Source\PSoC5/ICPCK_ISR.c **** *
 334:Generated_Source\PSoC5/ICPCK_ISR.c **** * Summary:
 335:Generated_Source\PSoC5/ICPCK_ISR.c **** *   Gets the state (enabled, disabled) of the Interrupt.
 336:Generated_Source\PSoC5/ICPCK_ISR.c **** *
 337:Generated_Source\PSoC5/ICPCK_ISR.c **** * Parameters:
 338:Generated_Source\PSoC5/ICPCK_ISR.c **** *   None
 339:Generated_Source\PSoC5/ICPCK_ISR.c **** *
 340:Generated_Source\PSoC5/ICPCK_ISR.c **** * Return:
 341:Generated_Source\PSoC5/ICPCK_ISR.c **** *   1 if enabled, 0 if disabled.
 342:Generated_Source\PSoC5/ICPCK_ISR.c **** *
 343:Generated_Source\PSoC5/ICPCK_ISR.c **** *******************************************************************************/
 344:Generated_Source\PSoC5/ICPCK_ISR.c **** uint8 ICPCK_ISR_GetState(void)
 345:Generated_Source\PSoC5/ICPCK_ISR.c **** {
 208              		.loc 1 345 0
 209              		.cfi_startproc
 210              		@ args = 0, pretend = 0, frame = 0
 211              		@ frame_needed = 0, uses_anonymous_args = 0
 212              		@ link register save eliminated.
 346:Generated_Source\PSoC5/ICPCK_ISR.c ****     /* Get the state of the general interrupt. */
 347:Generated_Source\PSoC5/ICPCK_ISR.c ****     return ((*ICPCK_ISR_INTC_SET_EN & (uint32)ICPCK_ISR__INTC_MASK) != 0u) ? 1u:0u;
 213              		.loc 1 347 0
 214 0000 044B     		ldr	r3, .L24
 215 0002 1B68     		ldr	r3, [r3]
 216 0004 13F0100F 		tst	r3, #16
 217 0008 01D0     		beq	.L23
 218 000a 0120     		movs	r0, #1
 219 000c 7047     		bx	lr
 220              	.L23:
 221 000e 0020     		movs	r0, #0
 348:Generated_Source\PSoC5/ICPCK_ISR.c **** }
 222              		.loc 1 348 0
ARM GAS  C:\Users\chascha\AppData\Local\Temp\cctBJds3.s 			page 11


 223 0010 7047     		bx	lr
 224              	.L25:
 225 0012 00BF     		.align	2
 226              	.L24:
 227 0014 00E100E0 		.word	-536813312
 228              		.cfi_endproc
 229              	.LFE10:
 230              		.size	ICPCK_ISR_GetState, .-ICPCK_ISR_GetState
 231              		.section	.text.ICPCK_ISR_Disable,"ax",%progbits
 232              		.align	2
 233              		.global	ICPCK_ISR_Disable
 234              		.thumb
 235              		.thumb_func
 236              		.type	ICPCK_ISR_Disable, %function
 237              	ICPCK_ISR_Disable:
 238              	.LFB11:
 349:Generated_Source\PSoC5/ICPCK_ISR.c **** 
 350:Generated_Source\PSoC5/ICPCK_ISR.c **** 
 351:Generated_Source\PSoC5/ICPCK_ISR.c **** /*******************************************************************************
 352:Generated_Source\PSoC5/ICPCK_ISR.c **** * Function Name: ICPCK_ISR_Disable
 353:Generated_Source\PSoC5/ICPCK_ISR.c **** ********************************************************************************
 354:Generated_Source\PSoC5/ICPCK_ISR.c **** *
 355:Generated_Source\PSoC5/ICPCK_ISR.c **** * Summary:
 356:Generated_Source\PSoC5/ICPCK_ISR.c **** *   Disables the Interrupt in the interrupt controller.
 357:Generated_Source\PSoC5/ICPCK_ISR.c **** *
 358:Generated_Source\PSoC5/ICPCK_ISR.c **** * Parameters:
 359:Generated_Source\PSoC5/ICPCK_ISR.c **** *   None
 360:Generated_Source\PSoC5/ICPCK_ISR.c **** *
 361:Generated_Source\PSoC5/ICPCK_ISR.c **** * Return:
 362:Generated_Source\PSoC5/ICPCK_ISR.c **** *   None
 363:Generated_Source\PSoC5/ICPCK_ISR.c **** *
 364:Generated_Source\PSoC5/ICPCK_ISR.c **** *******************************************************************************/
 365:Generated_Source\PSoC5/ICPCK_ISR.c **** void ICPCK_ISR_Disable(void)
 366:Generated_Source\PSoC5/ICPCK_ISR.c **** {
 239              		.loc 1 366 0
 240              		.cfi_startproc
 241              		@ args = 0, pretend = 0, frame = 0
 242              		@ frame_needed = 0, uses_anonymous_args = 0
 243              		@ link register save eliminated.
 367:Generated_Source\PSoC5/ICPCK_ISR.c ****     /* Disable the general interrupt. */
 368:Generated_Source\PSoC5/ICPCK_ISR.c ****     *ICPCK_ISR_INTC_CLR_EN = ICPCK_ISR__INTC_MASK;
 244              		.loc 1 368 0
 245 0000 1022     		movs	r2, #16
 246 0002 014B     		ldr	r3, .L27
 247 0004 1A60     		str	r2, [r3]
 248 0006 7047     		bx	lr
 249              	.L28:
 250              		.align	2
 251              	.L27:
 252 0008 80E100E0 		.word	-536813184
 253              		.cfi_endproc
 254              	.LFE11:
 255              		.size	ICPCK_ISR_Disable, .-ICPCK_ISR_Disable
 256              		.section	.text.ICPCK_ISR_Start,"ax",%progbits
 257              		.align	2
 258              		.global	ICPCK_ISR_Start
 259              		.thumb
ARM GAS  C:\Users\chascha\AppData\Local\Temp\cctBJds3.s 			page 12


 260              		.thumb_func
 261              		.type	ICPCK_ISR_Start, %function
 262              	ICPCK_ISR_Start:
 263              	.LFB1:
  70:Generated_Source\PSoC5/ICPCK_ISR.c ****     /* For all we know the interrupt is active. */
 264              		.loc 1 70 0
 265              		.cfi_startproc
 266              		@ args = 0, pretend = 0, frame = 0
 267              		@ frame_needed = 0, uses_anonymous_args = 0
 268 0000 08B5     		push	{r3, lr}
 269              		.cfi_def_cfa_offset 8
 270              		.cfi_offset 3, -8
 271              		.cfi_offset 14, -4
  72:Generated_Source\PSoC5/ICPCK_ISR.c **** 
 272              		.loc 1 72 0
 273 0002 FFF7FEFF 		bl	ICPCK_ISR_Disable
 274              	.LVL8:
  75:Generated_Source\PSoC5/ICPCK_ISR.c **** 
 275              		.loc 1 75 0
 276 0006 0448     		ldr	r0, .L31
 277 0008 FFF7FEFF 		bl	ICPCK_ISR_SetVector
 278              	.LVL9:
  78:Generated_Source\PSoC5/ICPCK_ISR.c **** 
 279              		.loc 1 78 0
 280 000c 0720     		movs	r0, #7
 281 000e FFF7FEFF 		bl	ICPCK_ISR_SetPriority
 282              	.LVL10:
  81:Generated_Source\PSoC5/ICPCK_ISR.c **** }
 283              		.loc 1 81 0
 284 0012 FFF7FEFF 		bl	ICPCK_ISR_Enable
 285              	.LVL11:
 286 0016 08BD     		pop	{r3, pc}
 287              	.L32:
 288              		.align	2
 289              	.L31:
 290 0018 00000000 		.word	ICPCK_ISR_Interrupt
 291              		.cfi_endproc
 292              	.LFE1:
 293              		.size	ICPCK_ISR_Start, .-ICPCK_ISR_Start
 294              		.section	.text.ICPCK_ISR_StartEx,"ax",%progbits
 295              		.align	2
 296              		.global	ICPCK_ISR_StartEx
 297              		.thumb
 298              		.thumb_func
 299              		.type	ICPCK_ISR_StartEx, %function
 300              	ICPCK_ISR_StartEx:
 301              	.LFB2:
 113:Generated_Source\PSoC5/ICPCK_ISR.c ****     /* For all we know the interrupt is active. */
 302              		.loc 1 113 0
 303              		.cfi_startproc
 304              		@ args = 0, pretend = 0, frame = 0
 305              		@ frame_needed = 0, uses_anonymous_args = 0
 306              	.LVL12:
 307 0000 10B5     		push	{r4, lr}
 308              		.cfi_def_cfa_offset 8
 309              		.cfi_offset 4, -8
 310              		.cfi_offset 14, -4
ARM GAS  C:\Users\chascha\AppData\Local\Temp\cctBJds3.s 			page 13


 311 0002 0446     		mov	r4, r0
 115:Generated_Source\PSoC5/ICPCK_ISR.c **** 
 312              		.loc 1 115 0
 313 0004 FFF7FEFF 		bl	ICPCK_ISR_Disable
 314              	.LVL13:
 118:Generated_Source\PSoC5/ICPCK_ISR.c **** 
 315              		.loc 1 118 0
 316 0008 2046     		mov	r0, r4
 317 000a FFF7FEFF 		bl	ICPCK_ISR_SetVector
 318              	.LVL14:
 121:Generated_Source\PSoC5/ICPCK_ISR.c **** 
 319              		.loc 1 121 0
 320 000e 0720     		movs	r0, #7
 321 0010 FFF7FEFF 		bl	ICPCK_ISR_SetPriority
 322              	.LVL15:
 124:Generated_Source\PSoC5/ICPCK_ISR.c **** }
 323              		.loc 1 124 0
 324 0014 FFF7FEFF 		bl	ICPCK_ISR_Enable
 325              	.LVL16:
 326 0018 10BD     		pop	{r4, pc}
 327              		.cfi_endproc
 328              	.LFE2:
 329              		.size	ICPCK_ISR_StartEx, .-ICPCK_ISR_StartEx
 330 001a 00BF     		.section	.text.ICPCK_ISR_Stop,"ax",%progbits
 331              		.align	2
 332              		.global	ICPCK_ISR_Stop
 333              		.thumb
 334              		.thumb_func
 335              		.type	ICPCK_ISR_Stop, %function
 336              	ICPCK_ISR_Stop:
 337              	.LFB3:
 143:Generated_Source\PSoC5/ICPCK_ISR.c ****     /* Disable this interrupt. */
 338              		.loc 1 143 0
 339              		.cfi_startproc
 340              		@ args = 0, pretend = 0, frame = 0
 341              		@ frame_needed = 0, uses_anonymous_args = 0
 342 0000 08B5     		push	{r3, lr}
 343              		.cfi_def_cfa_offset 8
 344              		.cfi_offset 3, -8
 345              		.cfi_offset 14, -4
 145:Generated_Source\PSoC5/ICPCK_ISR.c **** 
 346              		.loc 1 145 0
 347 0002 FFF7FEFF 		bl	ICPCK_ISR_Disable
 348              	.LVL17:
 148:Generated_Source\PSoC5/ICPCK_ISR.c **** }
 349              		.loc 1 148 0
 350 0006 0248     		ldr	r0, .L37
 351 0008 FFF7FEFF 		bl	ICPCK_ISR_SetVector
 352              	.LVL18:
 353 000c 08BD     		pop	{r3, pc}
 354              	.L38:
 355 000e 00BF     		.align	2
 356              	.L37:
 357 0010 00000000 		.word	IntDefaultHandler
 358              		.cfi_endproc
 359              	.LFE3:
 360              		.size	ICPCK_ISR_Stop, .-ICPCK_ISR_Stop
ARM GAS  C:\Users\chascha\AppData\Local\Temp\cctBJds3.s 			page 14


 361              		.section	.text.ICPCK_ISR_SetPending,"ax",%progbits
 362              		.align	2
 363              		.global	ICPCK_ISR_SetPending
 364              		.thumb
 365              		.thumb_func
 366              		.type	ICPCK_ISR_SetPending, %function
 367              	ICPCK_ISR_SetPending:
 368              	.LFB12:
 369:Generated_Source\PSoC5/ICPCK_ISR.c **** }
 370:Generated_Source\PSoC5/ICPCK_ISR.c **** 
 371:Generated_Source\PSoC5/ICPCK_ISR.c **** 
 372:Generated_Source\PSoC5/ICPCK_ISR.c **** /*******************************************************************************
 373:Generated_Source\PSoC5/ICPCK_ISR.c **** * Function Name: ICPCK_ISR_SetPending
 374:Generated_Source\PSoC5/ICPCK_ISR.c **** ********************************************************************************
 375:Generated_Source\PSoC5/ICPCK_ISR.c **** *
 376:Generated_Source\PSoC5/ICPCK_ISR.c **** * Summary:
 377:Generated_Source\PSoC5/ICPCK_ISR.c **** *   Causes the Interrupt to enter the pending state, a software method of
 378:Generated_Source\PSoC5/ICPCK_ISR.c **** *   generating the interrupt.
 379:Generated_Source\PSoC5/ICPCK_ISR.c **** *
 380:Generated_Source\PSoC5/ICPCK_ISR.c **** * Parameters:
 381:Generated_Source\PSoC5/ICPCK_ISR.c **** *   None
 382:Generated_Source\PSoC5/ICPCK_ISR.c **** *
 383:Generated_Source\PSoC5/ICPCK_ISR.c **** * Return:
 384:Generated_Source\PSoC5/ICPCK_ISR.c **** *   None
 385:Generated_Source\PSoC5/ICPCK_ISR.c **** *
 386:Generated_Source\PSoC5/ICPCK_ISR.c **** * Side Effects:
 387:Generated_Source\PSoC5/ICPCK_ISR.c **** *   If interrupts are enabled and the interrupt is set up properly, the ISR is
 388:Generated_Source\PSoC5/ICPCK_ISR.c **** *   entered (depending on the priority of this interrupt and other pending 
 389:Generated_Source\PSoC5/ICPCK_ISR.c **** *   interrupts).
 390:Generated_Source\PSoC5/ICPCK_ISR.c **** *
 391:Generated_Source\PSoC5/ICPCK_ISR.c **** *******************************************************************************/
 392:Generated_Source\PSoC5/ICPCK_ISR.c **** void ICPCK_ISR_SetPending(void)
 393:Generated_Source\PSoC5/ICPCK_ISR.c **** {
 369              		.loc 1 393 0
 370              		.cfi_startproc
 371              		@ args = 0, pretend = 0, frame = 0
 372              		@ frame_needed = 0, uses_anonymous_args = 0
 373              		@ link register save eliminated.
 394:Generated_Source\PSoC5/ICPCK_ISR.c ****     *ICPCK_ISR_INTC_SET_PD = ICPCK_ISR__INTC_MASK;
 374              		.loc 1 394 0
 375 0000 1022     		movs	r2, #16
 376 0002 014B     		ldr	r3, .L40
 377 0004 1A60     		str	r2, [r3]
 378 0006 7047     		bx	lr
 379              	.L41:
 380              		.align	2
 381              	.L40:
 382 0008 00E200E0 		.word	-536813056
 383              		.cfi_endproc
 384              	.LFE12:
 385              		.size	ICPCK_ISR_SetPending, .-ICPCK_ISR_SetPending
 386              		.section	.text.ICPCK_ISR_ClearPending,"ax",%progbits
 387              		.align	2
 388              		.global	ICPCK_ISR_ClearPending
 389              		.thumb
 390              		.thumb_func
 391              		.type	ICPCK_ISR_ClearPending, %function
ARM GAS  C:\Users\chascha\AppData\Local\Temp\cctBJds3.s 			page 15


 392              	ICPCK_ISR_ClearPending:
 393              	.LFB13:
 395:Generated_Source\PSoC5/ICPCK_ISR.c **** }
 396:Generated_Source\PSoC5/ICPCK_ISR.c **** 
 397:Generated_Source\PSoC5/ICPCK_ISR.c **** 
 398:Generated_Source\PSoC5/ICPCK_ISR.c **** /*******************************************************************************
 399:Generated_Source\PSoC5/ICPCK_ISR.c **** * Function Name: ICPCK_ISR_ClearPending
 400:Generated_Source\PSoC5/ICPCK_ISR.c **** ********************************************************************************
 401:Generated_Source\PSoC5/ICPCK_ISR.c **** *
 402:Generated_Source\PSoC5/ICPCK_ISR.c **** * Summary:
 403:Generated_Source\PSoC5/ICPCK_ISR.c **** *   Clears a pending interrupt in the interrupt controller.
 404:Generated_Source\PSoC5/ICPCK_ISR.c **** *
 405:Generated_Source\PSoC5/ICPCK_ISR.c **** *   Note Some interrupt sources are clear-on-read and require the block 
 406:Generated_Source\PSoC5/ICPCK_ISR.c **** *   interrupt/status register to be read/cleared with the appropriate block API 
 407:Generated_Source\PSoC5/ICPCK_ISR.c **** *   (GPIO, UART, and so on). Otherwise the ISR will continue to remain in 
 408:Generated_Source\PSoC5/ICPCK_ISR.c **** *   pending state even though the interrupt itself is cleared using this API.
 409:Generated_Source\PSoC5/ICPCK_ISR.c **** *
 410:Generated_Source\PSoC5/ICPCK_ISR.c **** * Parameters:
 411:Generated_Source\PSoC5/ICPCK_ISR.c **** *   None
 412:Generated_Source\PSoC5/ICPCK_ISR.c **** *
 413:Generated_Source\PSoC5/ICPCK_ISR.c **** * Return:
 414:Generated_Source\PSoC5/ICPCK_ISR.c **** *   None
 415:Generated_Source\PSoC5/ICPCK_ISR.c **** *
 416:Generated_Source\PSoC5/ICPCK_ISR.c **** *******************************************************************************/
 417:Generated_Source\PSoC5/ICPCK_ISR.c **** void ICPCK_ISR_ClearPending(void)
 418:Generated_Source\PSoC5/ICPCK_ISR.c **** {
 394              		.loc 1 418 0
 395              		.cfi_startproc
 396              		@ args = 0, pretend = 0, frame = 0
 397              		@ frame_needed = 0, uses_anonymous_args = 0
 398              		@ link register save eliminated.
 419:Generated_Source\PSoC5/ICPCK_ISR.c ****     *ICPCK_ISR_INTC_CLR_PD = ICPCK_ISR__INTC_MASK;
 399              		.loc 1 419 0
 400 0000 1022     		movs	r2, #16
 401 0002 014B     		ldr	r3, .L43
 402 0004 1A60     		str	r2, [r3]
 403 0006 7047     		bx	lr
 404              	.L44:
 405              		.align	2
 406              	.L43:
 407 0008 80E200E0 		.word	-536812928
 408              		.cfi_endproc
 409              	.LFE13:
 410              		.size	ICPCK_ISR_ClearPending, .-ICPCK_ISR_ClearPending
 411              		.comm	mPos,4,4
 412              		.comm	FPSmPos,1,1
 413              		.comm	FPSID,1,1
 414              		.comm	buttonID,1,1
 415              		.text
 416              	.Letext0:
 417              		.file 2 "Generated_Source\\PSoC5/cytypes.h"
 418              		.file 3 "Generated_Source\\PSoC5\\I2C.h"