ARM GAS  C:\Users\chascha\AppData\Local\Temp\ccRPAAFb.s 			page 1


   1              		.syntax unified
   2              		.cpu cortex-m3
   3              		.fpu softvfp
   4              		.eabi_attribute 20, 1
   5              		.eabi_attribute 21, 1
   6              		.eabi_attribute 23, 3
   7              		.eabi_attribute 24, 1
   8              		.eabi_attribute 25, 1
   9              		.eabi_attribute 26, 1
  10              		.eabi_attribute 30, 1
  11              		.eabi_attribute 34, 1
  12              		.eabi_attribute 18, 4
  13              		.thumb
  14              		.syntax unified
  15              		.file	"MotorISR.c"
  16              		.text
  17              	.Ltext0:
  18              		.cfi_sections	.debug_frame
  19              		.section	.text.MotorISR_Interrupt,"ax",%progbits
  20              		.align	2
  21              		.global	MotorISR_Interrupt
  22              		.thumb
  23              		.thumb_func
  24              		.type	MotorISR_Interrupt, %function
  25              	MotorISR_Interrupt:
  26              	.LFB4:
  27              		.file 1 "Generated_Source\\PSoC5\\MotorISR.c"
   1:Generated_Source\PSoC5/MotorISR.c **** /*******************************************************************************
   2:Generated_Source\PSoC5/MotorISR.c **** * File Name: MotorISR.c  
   3:Generated_Source\PSoC5/MotorISR.c **** * Version 1.71
   4:Generated_Source\PSoC5/MotorISR.c **** *
   5:Generated_Source\PSoC5/MotorISR.c **** *  Description:
   6:Generated_Source\PSoC5/MotorISR.c **** *   API for controlling the state of an interrupt.
   7:Generated_Source\PSoC5/MotorISR.c **** *
   8:Generated_Source\PSoC5/MotorISR.c **** *
   9:Generated_Source\PSoC5/MotorISR.c **** *  Note:
  10:Generated_Source\PSoC5/MotorISR.c **** *
  11:Generated_Source\PSoC5/MotorISR.c **** ********************************************************************************
  12:Generated_Source\PSoC5/MotorISR.c **** * Copyright 2008-2015, Cypress Semiconductor Corporation.  All rights reserved.
  13:Generated_Source\PSoC5/MotorISR.c **** * You may use this file only in accordance with the license, terms, conditions, 
  14:Generated_Source\PSoC5/MotorISR.c **** * disclaimers, and limitations in the end user license agreement accompanying 
  15:Generated_Source\PSoC5/MotorISR.c **** * the software package with which this file was provided.
  16:Generated_Source\PSoC5/MotorISR.c **** *******************************************************************************/
  17:Generated_Source\PSoC5/MotorISR.c **** 
  18:Generated_Source\PSoC5/MotorISR.c **** 
  19:Generated_Source\PSoC5/MotorISR.c **** #include <cydevice_trm.h>
  20:Generated_Source\PSoC5/MotorISR.c **** #include <CyLib.h>
  21:Generated_Source\PSoC5/MotorISR.c **** #include <MotorISR.h>
  22:Generated_Source\PSoC5/MotorISR.c **** #include "cyapicallbacks.h"
  23:Generated_Source\PSoC5/MotorISR.c **** 
  24:Generated_Source\PSoC5/MotorISR.c **** #if !defined(MotorISR__REMOVED) /* Check for removal by optimization */
  25:Generated_Source\PSoC5/MotorISR.c **** 
  26:Generated_Source\PSoC5/MotorISR.c **** /*******************************************************************************
  27:Generated_Source\PSoC5/MotorISR.c **** *  Place your includes, defines and code here 
  28:Generated_Source\PSoC5/MotorISR.c **** ********************************************************************************/
  29:Generated_Source\PSoC5/MotorISR.c **** /* `#START MotorISR_intc` */
  30:Generated_Source\PSoC5/MotorISR.c ****     #include "MotorTimer.h"
ARM GAS  C:\Users\chascha\AppData\Local\Temp\ccRPAAFb.s 			page 2


  31:Generated_Source\PSoC5/MotorISR.c ****     #include "Motor.h"
  32:Generated_Source\PSoC5/MotorISR.c ****     #include "UART.h"
  33:Generated_Source\PSoC5/MotorISR.c ****     #include "stdio.h"
  34:Generated_Source\PSoC5/MotorISR.c ****     volatile char mFlag;
  35:Generated_Source\PSoC5/MotorISR.c **** /* `#END` */
  36:Generated_Source\PSoC5/MotorISR.c **** 
  37:Generated_Source\PSoC5/MotorISR.c **** #ifndef CYINT_IRQ_BASE
  38:Generated_Source\PSoC5/MotorISR.c **** #define CYINT_IRQ_BASE      16
  39:Generated_Source\PSoC5/MotorISR.c **** #endif /* CYINT_IRQ_BASE */
  40:Generated_Source\PSoC5/MotorISR.c **** #ifndef CYINT_VECT_TABLE
  41:Generated_Source\PSoC5/MotorISR.c **** #define CYINT_VECT_TABLE    ((cyisraddress **) CYREG_NVIC_VECT_OFFSET)
  42:Generated_Source\PSoC5/MotorISR.c **** #endif /* CYINT_VECT_TABLE */
  43:Generated_Source\PSoC5/MotorISR.c **** 
  44:Generated_Source\PSoC5/MotorISR.c **** /* Declared in startup, used to set unused interrupts to. */
  45:Generated_Source\PSoC5/MotorISR.c **** CY_ISR_PROTO(IntDefaultHandler);
  46:Generated_Source\PSoC5/MotorISR.c **** 
  47:Generated_Source\PSoC5/MotorISR.c **** 
  48:Generated_Source\PSoC5/MotorISR.c **** /*******************************************************************************
  49:Generated_Source\PSoC5/MotorISR.c **** * Function Name: MotorISR_Start
  50:Generated_Source\PSoC5/MotorISR.c **** ********************************************************************************
  51:Generated_Source\PSoC5/MotorISR.c **** *
  52:Generated_Source\PSoC5/MotorISR.c **** * Summary:
  53:Generated_Source\PSoC5/MotorISR.c **** *  Set up the interrupt and enable it. This function disables the interrupt, 
  54:Generated_Source\PSoC5/MotorISR.c **** *  sets the default interrupt vector, sets the priority from the value in the
  55:Generated_Source\PSoC5/MotorISR.c **** *  Design Wide Resources Interrupt Editor, then enables the interrupt to the 
  56:Generated_Source\PSoC5/MotorISR.c **** *  interrupt controller.
  57:Generated_Source\PSoC5/MotorISR.c **** *
  58:Generated_Source\PSoC5/MotorISR.c **** * Parameters:  
  59:Generated_Source\PSoC5/MotorISR.c **** *   None
  60:Generated_Source\PSoC5/MotorISR.c **** *
  61:Generated_Source\PSoC5/MotorISR.c **** * Return:
  62:Generated_Source\PSoC5/MotorISR.c **** *   None
  63:Generated_Source\PSoC5/MotorISR.c **** *
  64:Generated_Source\PSoC5/MotorISR.c **** *******************************************************************************/
  65:Generated_Source\PSoC5/MotorISR.c **** void MotorISR_Start(void)
  66:Generated_Source\PSoC5/MotorISR.c **** {
  67:Generated_Source\PSoC5/MotorISR.c ****     /* For all we know the interrupt is active. */
  68:Generated_Source\PSoC5/MotorISR.c ****     MotorISR_Disable();
  69:Generated_Source\PSoC5/MotorISR.c **** 
  70:Generated_Source\PSoC5/MotorISR.c ****     /* Set the ISR to point to the MotorISR Interrupt. */
  71:Generated_Source\PSoC5/MotorISR.c ****     MotorISR_SetVector(&MotorISR_Interrupt);
  72:Generated_Source\PSoC5/MotorISR.c **** 
  73:Generated_Source\PSoC5/MotorISR.c ****     /* Set the priority. */
  74:Generated_Source\PSoC5/MotorISR.c ****     MotorISR_SetPriority((uint8)MotorISR_INTC_PRIOR_NUMBER);
  75:Generated_Source\PSoC5/MotorISR.c **** 
  76:Generated_Source\PSoC5/MotorISR.c ****     /* Enable it. */
  77:Generated_Source\PSoC5/MotorISR.c ****     MotorISR_Enable();
  78:Generated_Source\PSoC5/MotorISR.c **** }
  79:Generated_Source\PSoC5/MotorISR.c **** 
  80:Generated_Source\PSoC5/MotorISR.c **** 
  81:Generated_Source\PSoC5/MotorISR.c **** /*******************************************************************************
  82:Generated_Source\PSoC5/MotorISR.c **** * Function Name: MotorISR_StartEx
  83:Generated_Source\PSoC5/MotorISR.c **** ********************************************************************************
  84:Generated_Source\PSoC5/MotorISR.c **** *
  85:Generated_Source\PSoC5/MotorISR.c **** * Summary:
  86:Generated_Source\PSoC5/MotorISR.c **** *  Sets up the interrupt and enables it. This function disables the interrupt,
  87:Generated_Source\PSoC5/MotorISR.c **** *  sets the interrupt vector based on the address passed in, sets the priority 
ARM GAS  C:\Users\chascha\AppData\Local\Temp\ccRPAAFb.s 			page 3


  88:Generated_Source\PSoC5/MotorISR.c **** *  from the value in the Design Wide Resources Interrupt Editor, then enables 
  89:Generated_Source\PSoC5/MotorISR.c **** *  the interrupt to the interrupt controller.
  90:Generated_Source\PSoC5/MotorISR.c **** *  
  91:Generated_Source\PSoC5/MotorISR.c **** *  When defining ISR functions, the CY_ISR and CY_ISR_PROTO macros should be 
  92:Generated_Source\PSoC5/MotorISR.c **** *  used to provide consistent definition across compilers:
  93:Generated_Source\PSoC5/MotorISR.c **** *  
  94:Generated_Source\PSoC5/MotorISR.c **** *  Function definition example:
  95:Generated_Source\PSoC5/MotorISR.c **** *   CY_ISR(MyISR)
  96:Generated_Source\PSoC5/MotorISR.c **** *   {
  97:Generated_Source\PSoC5/MotorISR.c **** *   }
  98:Generated_Source\PSoC5/MotorISR.c **** *   Function prototype example:
  99:Generated_Source\PSoC5/MotorISR.c **** *   CY_ISR_PROTO(MyISR);
 100:Generated_Source\PSoC5/MotorISR.c **** *
 101:Generated_Source\PSoC5/MotorISR.c **** * Parameters:  
 102:Generated_Source\PSoC5/MotorISR.c **** *   address: Address of the ISR to set in the interrupt vector table.
 103:Generated_Source\PSoC5/MotorISR.c **** *
 104:Generated_Source\PSoC5/MotorISR.c **** * Return:
 105:Generated_Source\PSoC5/MotorISR.c **** *   None
 106:Generated_Source\PSoC5/MotorISR.c **** *
 107:Generated_Source\PSoC5/MotorISR.c **** *******************************************************************************/
 108:Generated_Source\PSoC5/MotorISR.c **** void MotorISR_StartEx(cyisraddress address)
 109:Generated_Source\PSoC5/MotorISR.c **** {
 110:Generated_Source\PSoC5/MotorISR.c ****     /* For all we know the interrupt is active. */
 111:Generated_Source\PSoC5/MotorISR.c ****     MotorISR_Disable();
 112:Generated_Source\PSoC5/MotorISR.c **** 
 113:Generated_Source\PSoC5/MotorISR.c ****     /* Set the ISR to point to the MotorISR Interrupt. */
 114:Generated_Source\PSoC5/MotorISR.c ****     MotorISR_SetVector(address);
 115:Generated_Source\PSoC5/MotorISR.c **** 
 116:Generated_Source\PSoC5/MotorISR.c ****     /* Set the priority. */
 117:Generated_Source\PSoC5/MotorISR.c ****     MotorISR_SetPriority((uint8)MotorISR_INTC_PRIOR_NUMBER);
 118:Generated_Source\PSoC5/MotorISR.c **** 
 119:Generated_Source\PSoC5/MotorISR.c ****     /* Enable it. */
 120:Generated_Source\PSoC5/MotorISR.c ****     MotorISR_Enable();
 121:Generated_Source\PSoC5/MotorISR.c **** }
 122:Generated_Source\PSoC5/MotorISR.c **** 
 123:Generated_Source\PSoC5/MotorISR.c **** 
 124:Generated_Source\PSoC5/MotorISR.c **** /*******************************************************************************
 125:Generated_Source\PSoC5/MotorISR.c **** * Function Name: MotorISR_Stop
 126:Generated_Source\PSoC5/MotorISR.c **** ********************************************************************************
 127:Generated_Source\PSoC5/MotorISR.c **** *
 128:Generated_Source\PSoC5/MotorISR.c **** * Summary:
 129:Generated_Source\PSoC5/MotorISR.c **** *   Disables and removes the interrupt.
 130:Generated_Source\PSoC5/MotorISR.c **** *
 131:Generated_Source\PSoC5/MotorISR.c **** * Parameters:  
 132:Generated_Source\PSoC5/MotorISR.c **** *   None
 133:Generated_Source\PSoC5/MotorISR.c **** *
 134:Generated_Source\PSoC5/MotorISR.c **** * Return:
 135:Generated_Source\PSoC5/MotorISR.c **** *   None
 136:Generated_Source\PSoC5/MotorISR.c **** *
 137:Generated_Source\PSoC5/MotorISR.c **** *******************************************************************************/
 138:Generated_Source\PSoC5/MotorISR.c **** void MotorISR_Stop(void)
 139:Generated_Source\PSoC5/MotorISR.c **** {
 140:Generated_Source\PSoC5/MotorISR.c ****     /* Disable this interrupt. */
 141:Generated_Source\PSoC5/MotorISR.c ****     MotorISR_Disable();
 142:Generated_Source\PSoC5/MotorISR.c **** 
 143:Generated_Source\PSoC5/MotorISR.c ****     /* Set the ISR to point to the passive one. */
 144:Generated_Source\PSoC5/MotorISR.c ****     MotorISR_SetVector(&IntDefaultHandler);
ARM GAS  C:\Users\chascha\AppData\Local\Temp\ccRPAAFb.s 			page 4


 145:Generated_Source\PSoC5/MotorISR.c **** }
 146:Generated_Source\PSoC5/MotorISR.c **** 
 147:Generated_Source\PSoC5/MotorISR.c **** 
 148:Generated_Source\PSoC5/MotorISR.c **** /*******************************************************************************
 149:Generated_Source\PSoC5/MotorISR.c **** * Function Name: MotorISR_Interrupt
 150:Generated_Source\PSoC5/MotorISR.c **** ********************************************************************************
 151:Generated_Source\PSoC5/MotorISR.c **** *
 152:Generated_Source\PSoC5/MotorISR.c **** * Summary:
 153:Generated_Source\PSoC5/MotorISR.c **** *   The default Interrupt Service Routine for MotorISR.
 154:Generated_Source\PSoC5/MotorISR.c **** *
 155:Generated_Source\PSoC5/MotorISR.c **** *   Add custom code between the coments to keep the next version of this file
 156:Generated_Source\PSoC5/MotorISR.c **** *   from over writting your code.
 157:Generated_Source\PSoC5/MotorISR.c **** *
 158:Generated_Source\PSoC5/MotorISR.c **** * Parameters:  
 159:Generated_Source\PSoC5/MotorISR.c **** *
 160:Generated_Source\PSoC5/MotorISR.c **** * Return:
 161:Generated_Source\PSoC5/MotorISR.c **** *   None
 162:Generated_Source\PSoC5/MotorISR.c **** *
 163:Generated_Source\PSoC5/MotorISR.c **** *******************************************************************************/
 164:Generated_Source\PSoC5/MotorISR.c **** CY_ISR(MotorISR_Interrupt)
 165:Generated_Source\PSoC5/MotorISR.c **** {
  28              		.loc 1 165 0
  29              		.cfi_startproc
  30              		@ args = 0, pretend = 0, frame = 0
  31              		@ frame_needed = 0, uses_anonymous_args = 0
  32 0000 08B5     		push	{r3, lr}
  33              		.cfi_def_cfa_offset 8
  34              		.cfi_offset 3, -8
  35              		.cfi_offset 14, -4
 166:Generated_Source\PSoC5/MotorISR.c ****     #ifdef MotorISR_INTERRUPT_INTERRUPT_CALLBACK
 167:Generated_Source\PSoC5/MotorISR.c ****         MotorISR_Interrupt_InterruptCallback();
 168:Generated_Source\PSoC5/MotorISR.c ****     #endif /* MotorISR_INTERRUPT_INTERRUPT_CALLBACK */ 
 169:Generated_Source\PSoC5/MotorISR.c **** 
 170:Generated_Source\PSoC5/MotorISR.c ****     /*  Place your Interrupt code here. */
 171:Generated_Source\PSoC5/MotorISR.c ****     /* `#START MotorISR_Interrupt` */
 172:Generated_Source\PSoC5/MotorISR.c ****     char a[1];
 173:Generated_Source\PSoC5/MotorISR.c ****         if(mFlag == 'f')
  36              		.loc 1 173 0
  37 0002 224B     		ldr	r3, .L11
  38 0004 1B78     		ldrb	r3, [r3]	@ zero_extendqisi2
  39 0006 DBB2     		uxtb	r3, r3
  40 0008 662B     		cmp	r3, #102
  41 000a 1BD1     		bne	.L2
 174:Generated_Source\PSoC5/MotorISR.c ****         {
 175:Generated_Source\PSoC5/MotorISR.c ****             if(Motor_Read() == 0xA)
  42              		.loc 1 175 0
  43 000c FFF7FEFF 		bl	Motor_Read
  44              	.LVL0:
  45 0010 0A28     		cmp	r0, #10
  46 0012 03D1     		bne	.L3
 176:Generated_Source\PSoC5/MotorISR.c ****             {
 177:Generated_Source\PSoC5/MotorISR.c ****                 Motor_Write(0x9);
  47              		.loc 1 177 0
  48 0014 0920     		movs	r0, #9
  49 0016 FFF7FEFF 		bl	Motor_Write
  50              	.LVL1:
  51 001a 33E0     		b	.L4
ARM GAS  C:\Users\chascha\AppData\Local\Temp\ccRPAAFb.s 			page 5


  52              	.L3:
 178:Generated_Source\PSoC5/MotorISR.c ****             }
 179:Generated_Source\PSoC5/MotorISR.c ****             else if(Motor_Read() == 0x9)
  53              		.loc 1 179 0
  54 001c FFF7FEFF 		bl	Motor_Read
  55              	.LVL2:
  56 0020 0928     		cmp	r0, #9
  57 0022 03D1     		bne	.L5
 180:Generated_Source\PSoC5/MotorISR.c ****             {
 181:Generated_Source\PSoC5/MotorISR.c ****                 Motor_Write(0x5);   
  58              		.loc 1 181 0
  59 0024 0520     		movs	r0, #5
  60 0026 FFF7FEFF 		bl	Motor_Write
  61              	.LVL3:
  62 002a 2BE0     		b	.L4
  63              	.L5:
 182:Generated_Source\PSoC5/MotorISR.c ****             }
 183:Generated_Source\PSoC5/MotorISR.c ****             else if(Motor_Read() == 0x5)
  64              		.loc 1 183 0
  65 002c FFF7FEFF 		bl	Motor_Read
  66              	.LVL4:
  67 0030 0528     		cmp	r0, #5
  68 0032 03D1     		bne	.L6
 184:Generated_Source\PSoC5/MotorISR.c ****             {
 185:Generated_Source\PSoC5/MotorISR.c ****                 Motor_Write(0x6);   
  69              		.loc 1 185 0
  70 0034 0620     		movs	r0, #6
  71 0036 FFF7FEFF 		bl	Motor_Write
  72              	.LVL5:
  73 003a 23E0     		b	.L4
  74              	.L6:
 186:Generated_Source\PSoC5/MotorISR.c ****             }
 187:Generated_Source\PSoC5/MotorISR.c ****             else
 188:Generated_Source\PSoC5/MotorISR.c ****             {
 189:Generated_Source\PSoC5/MotorISR.c ****                 Motor_Write(0xA);
  75              		.loc 1 189 0
  76 003c 0A20     		movs	r0, #10
  77 003e FFF7FEFF 		bl	Motor_Write
  78              	.LVL6:
  79 0042 1FE0     		b	.L4
  80              	.L2:
 190:Generated_Source\PSoC5/MotorISR.c ****             }
 191:Generated_Source\PSoC5/MotorISR.c ****         }
 192:Generated_Source\PSoC5/MotorISR.c ****         else if(mFlag == 'b')
  81              		.loc 1 192 0
  82 0044 114B     		ldr	r3, .L11
  83 0046 1B78     		ldrb	r3, [r3]	@ zero_extendqisi2
  84 0048 DBB2     		uxtb	r3, r3
  85 004a 622B     		cmp	r3, #98
  86 004c 1AD1     		bne	.L4
 193:Generated_Source\PSoC5/MotorISR.c ****         {
 194:Generated_Source\PSoC5/MotorISR.c ****             if(Motor_Read() == 0xA)
  87              		.loc 1 194 0
  88 004e FFF7FEFF 		bl	Motor_Read
  89              	.LVL7:
  90 0052 0A28     		cmp	r0, #10
  91 0054 03D1     		bne	.L7
ARM GAS  C:\Users\chascha\AppData\Local\Temp\ccRPAAFb.s 			page 6


 195:Generated_Source\PSoC5/MotorISR.c ****             {
 196:Generated_Source\PSoC5/MotorISR.c ****                 Motor_Write(0x6);
  92              		.loc 1 196 0
  93 0056 0620     		movs	r0, #6
  94 0058 FFF7FEFF 		bl	Motor_Write
  95              	.LVL8:
  96 005c 12E0     		b	.L4
  97              	.L7:
 197:Generated_Source\PSoC5/MotorISR.c ****             }
 198:Generated_Source\PSoC5/MotorISR.c ****             else if(Motor_Read() == 0x6)
  98              		.loc 1 198 0
  99 005e FFF7FEFF 		bl	Motor_Read
 100              	.LVL9:
 101 0062 0628     		cmp	r0, #6
 102 0064 03D1     		bne	.L8
 199:Generated_Source\PSoC5/MotorISR.c ****             {
 200:Generated_Source\PSoC5/MotorISR.c ****                 Motor_Write(0x5);   
 103              		.loc 1 200 0
 104 0066 0520     		movs	r0, #5
 105 0068 FFF7FEFF 		bl	Motor_Write
 106              	.LVL10:
 107 006c 0AE0     		b	.L4
 108              	.L8:
 201:Generated_Source\PSoC5/MotorISR.c ****             }
 202:Generated_Source\PSoC5/MotorISR.c ****             else if(Motor_Read() == 0x5)
 109              		.loc 1 202 0
 110 006e FFF7FEFF 		bl	Motor_Read
 111              	.LVL11:
 112 0072 0528     		cmp	r0, #5
 113 0074 03D1     		bne	.L9
 203:Generated_Source\PSoC5/MotorISR.c ****             {
 204:Generated_Source\PSoC5/MotorISR.c ****                 Motor_Write(0x9);   
 114              		.loc 1 204 0
 115 0076 0920     		movs	r0, #9
 116 0078 FFF7FEFF 		bl	Motor_Write
 117              	.LVL12:
 118 007c 02E0     		b	.L4
 119              	.L9:
 205:Generated_Source\PSoC5/MotorISR.c ****             }
 206:Generated_Source\PSoC5/MotorISR.c ****             else
 207:Generated_Source\PSoC5/MotorISR.c ****             {
 208:Generated_Source\PSoC5/MotorISR.c ****                 Motor_Write(0xA);   
 120              		.loc 1 208 0
 121 007e 0A20     		movs	r0, #10
 122 0080 FFF7FEFF 		bl	Motor_Write
 123              	.LVL13:
 124              	.L4:
 209:Generated_Source\PSoC5/MotorISR.c ****             }
 210:Generated_Source\PSoC5/MotorISR.c ****         }
 211:Generated_Source\PSoC5/MotorISR.c ****         MotorTimer_ReadStatusRegister();
 125              		.loc 1 211 0
 126 0084 FFF7FEFF 		bl	MotorTimer_ReadStatusRegister
 127              	.LVL14:
 128 0088 08BD     		pop	{r3, pc}
 129              	.L12:
 130 008a 00BF     		.align	2
 131              	.L11:
ARM GAS  C:\Users\chascha\AppData\Local\Temp\ccRPAAFb.s 			page 7


 132 008c 00000000 		.word	mFlag
 133              		.cfi_endproc
 134              	.LFE4:
 135              		.size	MotorISR_Interrupt, .-MotorISR_Interrupt
 136              		.section	.text.MotorISR_SetVector,"ax",%progbits
 137              		.align	2
 138              		.global	MotorISR_SetVector
 139              		.thumb
 140              		.thumb_func
 141              		.type	MotorISR_SetVector, %function
 142              	MotorISR_SetVector:
 143              	.LFB5:
 212:Generated_Source\PSoC5/MotorISR.c ****     /* `#END` */
 213:Generated_Source\PSoC5/MotorISR.c **** }
 214:Generated_Source\PSoC5/MotorISR.c **** 
 215:Generated_Source\PSoC5/MotorISR.c **** 
 216:Generated_Source\PSoC5/MotorISR.c **** /*******************************************************************************
 217:Generated_Source\PSoC5/MotorISR.c **** * Function Name: MotorISR_SetVector
 218:Generated_Source\PSoC5/MotorISR.c **** ********************************************************************************
 219:Generated_Source\PSoC5/MotorISR.c **** *
 220:Generated_Source\PSoC5/MotorISR.c **** * Summary:
 221:Generated_Source\PSoC5/MotorISR.c **** *   Change the ISR vector for the Interrupt. Note calling MotorISR_Start
 222:Generated_Source\PSoC5/MotorISR.c **** *   will override any effect this method would have had. To set the vector 
 223:Generated_Source\PSoC5/MotorISR.c **** *   before the component has been started use MotorISR_StartEx instead.
 224:Generated_Source\PSoC5/MotorISR.c **** * 
 225:Generated_Source\PSoC5/MotorISR.c **** *   When defining ISR functions, the CY_ISR and CY_ISR_PROTO macros should be 
 226:Generated_Source\PSoC5/MotorISR.c **** *   used to provide consistent definition across compilers:
 227:Generated_Source\PSoC5/MotorISR.c **** *
 228:Generated_Source\PSoC5/MotorISR.c **** *   Function definition example:
 229:Generated_Source\PSoC5/MotorISR.c **** *   CY_ISR(MyISR)
 230:Generated_Source\PSoC5/MotorISR.c **** *   {
 231:Generated_Source\PSoC5/MotorISR.c **** *   }
 232:Generated_Source\PSoC5/MotorISR.c **** *
 233:Generated_Source\PSoC5/MotorISR.c **** *   Function prototype example:
 234:Generated_Source\PSoC5/MotorISR.c **** *     CY_ISR_PROTO(MyISR);
 235:Generated_Source\PSoC5/MotorISR.c **** *
 236:Generated_Source\PSoC5/MotorISR.c **** * Parameters:
 237:Generated_Source\PSoC5/MotorISR.c **** *   address: Address of the ISR to set in the interrupt vector table.
 238:Generated_Source\PSoC5/MotorISR.c **** *
 239:Generated_Source\PSoC5/MotorISR.c **** * Return:
 240:Generated_Source\PSoC5/MotorISR.c **** *   None
 241:Generated_Source\PSoC5/MotorISR.c **** *
 242:Generated_Source\PSoC5/MotorISR.c **** *******************************************************************************/
 243:Generated_Source\PSoC5/MotorISR.c **** void MotorISR_SetVector(cyisraddress address)
 244:Generated_Source\PSoC5/MotorISR.c **** {
 144              		.loc 1 244 0
 145              		.cfi_startproc
 146              		@ args = 0, pretend = 0, frame = 0
 147              		@ frame_needed = 0, uses_anonymous_args = 0
 148              		@ link register save eliminated.
 149              	.LVL15:
 245:Generated_Source\PSoC5/MotorISR.c ****     cyisraddress * ramVectorTable;
 246:Generated_Source\PSoC5/MotorISR.c **** 
 247:Generated_Source\PSoC5/MotorISR.c ****     ramVectorTable = (cyisraddress *) *CYINT_VECT_TABLE;
 150              		.loc 1 247 0
 151 0000 024B     		ldr	r3, .L14
 152 0002 1B68     		ldr	r3, [r3]
ARM GAS  C:\Users\chascha\AppData\Local\Temp\ccRPAAFb.s 			page 8


 153              	.LVL16:
 248:Generated_Source\PSoC5/MotorISR.c **** 
 249:Generated_Source\PSoC5/MotorISR.c ****     ramVectorTable[CYINT_IRQ_BASE + (uint32)MotorISR__INTC_NUMBER] = address;
 154              		.loc 1 249 0
 155 0004 C3F88400 		str	r0, [r3, #132]
 156 0008 7047     		bx	lr
 157              	.L15:
 158 000a 00BF     		.align	2
 159              	.L14:
 160 000c 08ED00E0 		.word	-536810232
 161              		.cfi_endproc
 162              	.LFE5:
 163              		.size	MotorISR_SetVector, .-MotorISR_SetVector
 164              		.section	.text.MotorISR_GetVector,"ax",%progbits
 165              		.align	2
 166              		.global	MotorISR_GetVector
 167              		.thumb
 168              		.thumb_func
 169              		.type	MotorISR_GetVector, %function
 170              	MotorISR_GetVector:
 171              	.LFB6:
 250:Generated_Source\PSoC5/MotorISR.c **** }
 251:Generated_Source\PSoC5/MotorISR.c **** 
 252:Generated_Source\PSoC5/MotorISR.c **** 
 253:Generated_Source\PSoC5/MotorISR.c **** /*******************************************************************************
 254:Generated_Source\PSoC5/MotorISR.c **** * Function Name: MotorISR_GetVector
 255:Generated_Source\PSoC5/MotorISR.c **** ********************************************************************************
 256:Generated_Source\PSoC5/MotorISR.c **** *
 257:Generated_Source\PSoC5/MotorISR.c **** * Summary:
 258:Generated_Source\PSoC5/MotorISR.c **** *   Gets the "address" of the current ISR vector for the Interrupt.
 259:Generated_Source\PSoC5/MotorISR.c **** *
 260:Generated_Source\PSoC5/MotorISR.c **** * Parameters:
 261:Generated_Source\PSoC5/MotorISR.c **** *   None
 262:Generated_Source\PSoC5/MotorISR.c **** *
 263:Generated_Source\PSoC5/MotorISR.c **** * Return:
 264:Generated_Source\PSoC5/MotorISR.c **** *   Address of the ISR in the interrupt vector table.
 265:Generated_Source\PSoC5/MotorISR.c **** *
 266:Generated_Source\PSoC5/MotorISR.c **** *******************************************************************************/
 267:Generated_Source\PSoC5/MotorISR.c **** cyisraddress MotorISR_GetVector(void)
 268:Generated_Source\PSoC5/MotorISR.c **** {
 172              		.loc 1 268 0
 173              		.cfi_startproc
 174              		@ args = 0, pretend = 0, frame = 0
 175              		@ frame_needed = 0, uses_anonymous_args = 0
 176              		@ link register save eliminated.
 269:Generated_Source\PSoC5/MotorISR.c ****     cyisraddress * ramVectorTable;
 270:Generated_Source\PSoC5/MotorISR.c **** 
 271:Generated_Source\PSoC5/MotorISR.c ****     ramVectorTable = (cyisraddress *) *CYINT_VECT_TABLE;
 177              		.loc 1 271 0
 178 0000 024B     		ldr	r3, .L17
 179 0002 1B68     		ldr	r3, [r3]
 180              	.LVL17:
 272:Generated_Source\PSoC5/MotorISR.c **** 
 273:Generated_Source\PSoC5/MotorISR.c ****     return ramVectorTable[CYINT_IRQ_BASE + (uint32)MotorISR__INTC_NUMBER];
 274:Generated_Source\PSoC5/MotorISR.c **** }
 181              		.loc 1 274 0
 182 0004 D3F88400 		ldr	r0, [r3, #132]
ARM GAS  C:\Users\chascha\AppData\Local\Temp\ccRPAAFb.s 			page 9


 183 0008 7047     		bx	lr
 184              	.L18:
 185 000a 00BF     		.align	2
 186              	.L17:
 187 000c 08ED00E0 		.word	-536810232
 188              		.cfi_endproc
 189              	.LFE6:
 190              		.size	MotorISR_GetVector, .-MotorISR_GetVector
 191              		.section	.text.MotorISR_SetPriority,"ax",%progbits
 192              		.align	2
 193              		.global	MotorISR_SetPriority
 194              		.thumb
 195              		.thumb_func
 196              		.type	MotorISR_SetPriority, %function
 197              	MotorISR_SetPriority:
 198              	.LFB7:
 275:Generated_Source\PSoC5/MotorISR.c **** 
 276:Generated_Source\PSoC5/MotorISR.c **** 
 277:Generated_Source\PSoC5/MotorISR.c **** /*******************************************************************************
 278:Generated_Source\PSoC5/MotorISR.c **** * Function Name: MotorISR_SetPriority
 279:Generated_Source\PSoC5/MotorISR.c **** ********************************************************************************
 280:Generated_Source\PSoC5/MotorISR.c **** *
 281:Generated_Source\PSoC5/MotorISR.c **** * Summary:
 282:Generated_Source\PSoC5/MotorISR.c **** *   Sets the Priority of the Interrupt. 
 283:Generated_Source\PSoC5/MotorISR.c **** *
 284:Generated_Source\PSoC5/MotorISR.c **** *   Note calling MotorISR_Start or MotorISR_StartEx will 
 285:Generated_Source\PSoC5/MotorISR.c **** *   override any effect this API would have had. This API should only be called
 286:Generated_Source\PSoC5/MotorISR.c **** *   after MotorISR_Start or MotorISR_StartEx has been called. 
 287:Generated_Source\PSoC5/MotorISR.c **** *   To set the initial priority for the component, use the Design-Wide Resources
 288:Generated_Source\PSoC5/MotorISR.c **** *   Interrupt Editor.
 289:Generated_Source\PSoC5/MotorISR.c **** *
 290:Generated_Source\PSoC5/MotorISR.c **** *   Note This API has no effect on Non-maskable interrupt NMI).
 291:Generated_Source\PSoC5/MotorISR.c **** *
 292:Generated_Source\PSoC5/MotorISR.c **** * Parameters:
 293:Generated_Source\PSoC5/MotorISR.c **** *   priority: Priority of the interrupt, 0 being the highest priority
 294:Generated_Source\PSoC5/MotorISR.c **** *             PSoC 3 and PSoC 5LP: Priority is from 0 to 7.
 295:Generated_Source\PSoC5/MotorISR.c **** *             PSoC 4: Priority is from 0 to 3.
 296:Generated_Source\PSoC5/MotorISR.c **** *
 297:Generated_Source\PSoC5/MotorISR.c **** * Return:
 298:Generated_Source\PSoC5/MotorISR.c **** *   None
 299:Generated_Source\PSoC5/MotorISR.c **** *
 300:Generated_Source\PSoC5/MotorISR.c **** *******************************************************************************/
 301:Generated_Source\PSoC5/MotorISR.c **** void MotorISR_SetPriority(uint8 priority)
 302:Generated_Source\PSoC5/MotorISR.c **** {
 199              		.loc 1 302 0
 200              		.cfi_startproc
 201              		@ args = 0, pretend = 0, frame = 0
 202              		@ frame_needed = 0, uses_anonymous_args = 0
 203              		@ link register save eliminated.
 204              	.LVL18:
 303:Generated_Source\PSoC5/MotorISR.c ****     *MotorISR_INTC_PRIOR = priority << 5;
 205              		.loc 1 303 0
 206 0000 4001     		lsls	r0, r0, #5
 207              	.LVL19:
 208 0002 C0B2     		uxtb	r0, r0
 209 0004 014B     		ldr	r3, .L20
 210 0006 1870     		strb	r0, [r3]
ARM GAS  C:\Users\chascha\AppData\Local\Temp\ccRPAAFb.s 			page 10


 211 0008 7047     		bx	lr
 212              	.L21:
 213 000a 00BF     		.align	2
 214              	.L20:
 215 000c 11E400E0 		.word	-536812527
 216              		.cfi_endproc
 217              	.LFE7:
 218              		.size	MotorISR_SetPriority, .-MotorISR_SetPriority
 219              		.section	.text.MotorISR_GetPriority,"ax",%progbits
 220              		.align	2
 221              		.global	MotorISR_GetPriority
 222              		.thumb
 223              		.thumb_func
 224              		.type	MotorISR_GetPriority, %function
 225              	MotorISR_GetPriority:
 226              	.LFB8:
 304:Generated_Source\PSoC5/MotorISR.c **** }
 305:Generated_Source\PSoC5/MotorISR.c **** 
 306:Generated_Source\PSoC5/MotorISR.c **** 
 307:Generated_Source\PSoC5/MotorISR.c **** /*******************************************************************************
 308:Generated_Source\PSoC5/MotorISR.c **** * Function Name: MotorISR_GetPriority
 309:Generated_Source\PSoC5/MotorISR.c **** ********************************************************************************
 310:Generated_Source\PSoC5/MotorISR.c **** *
 311:Generated_Source\PSoC5/MotorISR.c **** * Summary:
 312:Generated_Source\PSoC5/MotorISR.c **** *   Gets the Priority of the Interrupt.
 313:Generated_Source\PSoC5/MotorISR.c **** *
 314:Generated_Source\PSoC5/MotorISR.c **** * Parameters:
 315:Generated_Source\PSoC5/MotorISR.c **** *   None
 316:Generated_Source\PSoC5/MotorISR.c **** *
 317:Generated_Source\PSoC5/MotorISR.c **** * Return:
 318:Generated_Source\PSoC5/MotorISR.c **** *   Priority of the interrupt, 0 being the highest priority
 319:Generated_Source\PSoC5/MotorISR.c **** *    PSoC 3 and PSoC 5LP: Priority is from 0 to 7.
 320:Generated_Source\PSoC5/MotorISR.c **** *    PSoC 4: Priority is from 0 to 3.
 321:Generated_Source\PSoC5/MotorISR.c **** *
 322:Generated_Source\PSoC5/MotorISR.c **** *******************************************************************************/
 323:Generated_Source\PSoC5/MotorISR.c **** uint8 MotorISR_GetPriority(void)
 324:Generated_Source\PSoC5/MotorISR.c **** {
 227              		.loc 1 324 0
 228              		.cfi_startproc
 229              		@ args = 0, pretend = 0, frame = 0
 230              		@ frame_needed = 0, uses_anonymous_args = 0
 231              		@ link register save eliminated.
 325:Generated_Source\PSoC5/MotorISR.c ****     uint8 priority;
 326:Generated_Source\PSoC5/MotorISR.c **** 
 327:Generated_Source\PSoC5/MotorISR.c **** 
 328:Generated_Source\PSoC5/MotorISR.c ****     priority = *MotorISR_INTC_PRIOR >> 5;
 232              		.loc 1 328 0
 233 0000 014B     		ldr	r3, .L23
 234 0002 1878     		ldrb	r0, [r3]	@ zero_extendqisi2
 235              	.LVL20:
 329:Generated_Source\PSoC5/MotorISR.c **** 
 330:Generated_Source\PSoC5/MotorISR.c ****     return priority;
 331:Generated_Source\PSoC5/MotorISR.c **** }
 236              		.loc 1 331 0
 237 0004 4009     		lsrs	r0, r0, #5
 238              	.LVL21:
 239 0006 7047     		bx	lr
ARM GAS  C:\Users\chascha\AppData\Local\Temp\ccRPAAFb.s 			page 11


 240              	.L24:
 241              		.align	2
 242              	.L23:
 243 0008 11E400E0 		.word	-536812527
 244              		.cfi_endproc
 245              	.LFE8:
 246              		.size	MotorISR_GetPriority, .-MotorISR_GetPriority
 247              		.section	.text.MotorISR_Enable,"ax",%progbits
 248              		.align	2
 249              		.global	MotorISR_Enable
 250              		.thumb
 251              		.thumb_func
 252              		.type	MotorISR_Enable, %function
 253              	MotorISR_Enable:
 254              	.LFB9:
 332:Generated_Source\PSoC5/MotorISR.c **** 
 333:Generated_Source\PSoC5/MotorISR.c **** 
 334:Generated_Source\PSoC5/MotorISR.c **** /*******************************************************************************
 335:Generated_Source\PSoC5/MotorISR.c **** * Function Name: MotorISR_Enable
 336:Generated_Source\PSoC5/MotorISR.c **** ********************************************************************************
 337:Generated_Source\PSoC5/MotorISR.c **** *
 338:Generated_Source\PSoC5/MotorISR.c **** * Summary:
 339:Generated_Source\PSoC5/MotorISR.c **** *   Enables the interrupt to the interrupt controller. Do not call this function
 340:Generated_Source\PSoC5/MotorISR.c **** *   unless ISR_Start() has been called or the functionality of the ISR_Start() 
 341:Generated_Source\PSoC5/MotorISR.c **** *   function, which sets the vector and the priority, has been called.
 342:Generated_Source\PSoC5/MotorISR.c **** *
 343:Generated_Source\PSoC5/MotorISR.c **** * Parameters:
 344:Generated_Source\PSoC5/MotorISR.c **** *   None
 345:Generated_Source\PSoC5/MotorISR.c **** *
 346:Generated_Source\PSoC5/MotorISR.c **** * Return:
 347:Generated_Source\PSoC5/MotorISR.c **** *   None
 348:Generated_Source\PSoC5/MotorISR.c **** *
 349:Generated_Source\PSoC5/MotorISR.c **** *******************************************************************************/
 350:Generated_Source\PSoC5/MotorISR.c **** void MotorISR_Enable(void)
 351:Generated_Source\PSoC5/MotorISR.c **** {
 255              		.loc 1 351 0
 256              		.cfi_startproc
 257              		@ args = 0, pretend = 0, frame = 0
 258              		@ frame_needed = 0, uses_anonymous_args = 0
 259              		@ link register save eliminated.
 352:Generated_Source\PSoC5/MotorISR.c ****     /* Enable the general interrupt. */
 353:Generated_Source\PSoC5/MotorISR.c ****     *MotorISR_INTC_SET_EN = MotorISR__INTC_MASK;
 260              		.loc 1 353 0
 261 0000 4FF40032 		mov	r2, #131072
 262 0004 014B     		ldr	r3, .L26
 263 0006 1A60     		str	r2, [r3]
 264 0008 7047     		bx	lr
 265              	.L27:
 266 000a 00BF     		.align	2
 267              	.L26:
 268 000c 00E100E0 		.word	-536813312
 269              		.cfi_endproc
 270              	.LFE9:
 271              		.size	MotorISR_Enable, .-MotorISR_Enable
 272              		.section	.text.MotorISR_GetState,"ax",%progbits
 273              		.align	2
 274              		.global	MotorISR_GetState
ARM GAS  C:\Users\chascha\AppData\Local\Temp\ccRPAAFb.s 			page 12


 275              		.thumb
 276              		.thumb_func
 277              		.type	MotorISR_GetState, %function
 278              	MotorISR_GetState:
 279              	.LFB10:
 354:Generated_Source\PSoC5/MotorISR.c **** }
 355:Generated_Source\PSoC5/MotorISR.c **** 
 356:Generated_Source\PSoC5/MotorISR.c **** 
 357:Generated_Source\PSoC5/MotorISR.c **** /*******************************************************************************
 358:Generated_Source\PSoC5/MotorISR.c **** * Function Name: MotorISR_GetState
 359:Generated_Source\PSoC5/MotorISR.c **** ********************************************************************************
 360:Generated_Source\PSoC5/MotorISR.c **** *
 361:Generated_Source\PSoC5/MotorISR.c **** * Summary:
 362:Generated_Source\PSoC5/MotorISR.c **** *   Gets the state (enabled, disabled) of the Interrupt.
 363:Generated_Source\PSoC5/MotorISR.c **** *
 364:Generated_Source\PSoC5/MotorISR.c **** * Parameters:
 365:Generated_Source\PSoC5/MotorISR.c **** *   None
 366:Generated_Source\PSoC5/MotorISR.c **** *
 367:Generated_Source\PSoC5/MotorISR.c **** * Return:
 368:Generated_Source\PSoC5/MotorISR.c **** *   1 if enabled, 0 if disabled.
 369:Generated_Source\PSoC5/MotorISR.c **** *
 370:Generated_Source\PSoC5/MotorISR.c **** *******************************************************************************/
 371:Generated_Source\PSoC5/MotorISR.c **** uint8 MotorISR_GetState(void)
 372:Generated_Source\PSoC5/MotorISR.c **** {
 280              		.loc 1 372 0
 281              		.cfi_startproc
 282              		@ args = 0, pretend = 0, frame = 0
 283              		@ frame_needed = 0, uses_anonymous_args = 0
 284              		@ link register save eliminated.
 373:Generated_Source\PSoC5/MotorISR.c ****     /* Get the state of the general interrupt. */
 374:Generated_Source\PSoC5/MotorISR.c ****     return ((*MotorISR_INTC_SET_EN & (uint32)MotorISR__INTC_MASK) != 0u) ? 1u:0u;
 285              		.loc 1 374 0
 286 0000 044B     		ldr	r3, .L31
 287 0002 1B68     		ldr	r3, [r3]
 288 0004 13F4003F 		tst	r3, #131072
 289 0008 01D0     		beq	.L30
 290 000a 0120     		movs	r0, #1
 291 000c 7047     		bx	lr
 292              	.L30:
 293 000e 0020     		movs	r0, #0
 375:Generated_Source\PSoC5/MotorISR.c **** }
 294              		.loc 1 375 0
 295 0010 7047     		bx	lr
 296              	.L32:
 297 0012 00BF     		.align	2
 298              	.L31:
 299 0014 00E100E0 		.word	-536813312
 300              		.cfi_endproc
 301              	.LFE10:
 302              		.size	MotorISR_GetState, .-MotorISR_GetState
 303              		.section	.text.MotorISR_Disable,"ax",%progbits
 304              		.align	2
 305              		.global	MotorISR_Disable
 306              		.thumb
 307              		.thumb_func
 308              		.type	MotorISR_Disable, %function
 309              	MotorISR_Disable:
ARM GAS  C:\Users\chascha\AppData\Local\Temp\ccRPAAFb.s 			page 13


 310              	.LFB11:
 376:Generated_Source\PSoC5/MotorISR.c **** 
 377:Generated_Source\PSoC5/MotorISR.c **** 
 378:Generated_Source\PSoC5/MotorISR.c **** /*******************************************************************************
 379:Generated_Source\PSoC5/MotorISR.c **** * Function Name: MotorISR_Disable
 380:Generated_Source\PSoC5/MotorISR.c **** ********************************************************************************
 381:Generated_Source\PSoC5/MotorISR.c **** *
 382:Generated_Source\PSoC5/MotorISR.c **** * Summary:
 383:Generated_Source\PSoC5/MotorISR.c **** *   Disables the Interrupt in the interrupt controller.
 384:Generated_Source\PSoC5/MotorISR.c **** *
 385:Generated_Source\PSoC5/MotorISR.c **** * Parameters:
 386:Generated_Source\PSoC5/MotorISR.c **** *   None
 387:Generated_Source\PSoC5/MotorISR.c **** *
 388:Generated_Source\PSoC5/MotorISR.c **** * Return:
 389:Generated_Source\PSoC5/MotorISR.c **** *   None
 390:Generated_Source\PSoC5/MotorISR.c **** *
 391:Generated_Source\PSoC5/MotorISR.c **** *******************************************************************************/
 392:Generated_Source\PSoC5/MotorISR.c **** void MotorISR_Disable(void)
 393:Generated_Source\PSoC5/MotorISR.c **** {
 311              		.loc 1 393 0
 312              		.cfi_startproc
 313              		@ args = 0, pretend = 0, frame = 0
 314              		@ frame_needed = 0, uses_anonymous_args = 0
 315              		@ link register save eliminated.
 394:Generated_Source\PSoC5/MotorISR.c ****     /* Disable the general interrupt. */
 395:Generated_Source\PSoC5/MotorISR.c ****     *MotorISR_INTC_CLR_EN = MotorISR__INTC_MASK;
 316              		.loc 1 395 0
 317 0000 4FF40032 		mov	r2, #131072
 318 0004 014B     		ldr	r3, .L34
 319 0006 1A60     		str	r2, [r3]
 320 0008 7047     		bx	lr
 321              	.L35:
 322 000a 00BF     		.align	2
 323              	.L34:
 324 000c 80E100E0 		.word	-536813184
 325              		.cfi_endproc
 326              	.LFE11:
 327              		.size	MotorISR_Disable, .-MotorISR_Disable
 328              		.section	.text.MotorISR_Start,"ax",%progbits
 329              		.align	2
 330              		.global	MotorISR_Start
 331              		.thumb
 332              		.thumb_func
 333              		.type	MotorISR_Start, %function
 334              	MotorISR_Start:
 335              	.LFB1:
  66:Generated_Source\PSoC5/MotorISR.c ****     /* For all we know the interrupt is active. */
 336              		.loc 1 66 0
 337              		.cfi_startproc
 338              		@ args = 0, pretend = 0, frame = 0
 339              		@ frame_needed = 0, uses_anonymous_args = 0
 340 0000 08B5     		push	{r3, lr}
 341              		.cfi_def_cfa_offset 8
 342              		.cfi_offset 3, -8
 343              		.cfi_offset 14, -4
  68:Generated_Source\PSoC5/MotorISR.c **** 
 344              		.loc 1 68 0
ARM GAS  C:\Users\chascha\AppData\Local\Temp\ccRPAAFb.s 			page 14


 345 0002 FFF7FEFF 		bl	MotorISR_Disable
 346              	.LVL22:
  71:Generated_Source\PSoC5/MotorISR.c **** 
 347              		.loc 1 71 0
 348 0006 0448     		ldr	r0, .L38
 349 0008 FFF7FEFF 		bl	MotorISR_SetVector
 350              	.LVL23:
  74:Generated_Source\PSoC5/MotorISR.c **** 
 351              		.loc 1 74 0
 352 000c 0020     		movs	r0, #0
 353 000e FFF7FEFF 		bl	MotorISR_SetPriority
 354              	.LVL24:
  77:Generated_Source\PSoC5/MotorISR.c **** }
 355              		.loc 1 77 0
 356 0012 FFF7FEFF 		bl	MotorISR_Enable
 357              	.LVL25:
 358 0016 08BD     		pop	{r3, pc}
 359              	.L39:
 360              		.align	2
 361              	.L38:
 362 0018 00000000 		.word	MotorISR_Interrupt
 363              		.cfi_endproc
 364              	.LFE1:
 365              		.size	MotorISR_Start, .-MotorISR_Start
 366              		.section	.text.MotorISR_StartEx,"ax",%progbits
 367              		.align	2
 368              		.global	MotorISR_StartEx
 369              		.thumb
 370              		.thumb_func
 371              		.type	MotorISR_StartEx, %function
 372              	MotorISR_StartEx:
 373              	.LFB2:
 109:Generated_Source\PSoC5/MotorISR.c ****     /* For all we know the interrupt is active. */
 374              		.loc 1 109 0
 375              		.cfi_startproc
 376              		@ args = 0, pretend = 0, frame = 0
 377              		@ frame_needed = 0, uses_anonymous_args = 0
 378              	.LVL26:
 379 0000 10B5     		push	{r4, lr}
 380              		.cfi_def_cfa_offset 8
 381              		.cfi_offset 4, -8
 382              		.cfi_offset 14, -4
 383 0002 0446     		mov	r4, r0
 111:Generated_Source\PSoC5/MotorISR.c **** 
 384              		.loc 1 111 0
 385 0004 FFF7FEFF 		bl	MotorISR_Disable
 386              	.LVL27:
 114:Generated_Source\PSoC5/MotorISR.c **** 
 387              		.loc 1 114 0
 388 0008 2046     		mov	r0, r4
 389 000a FFF7FEFF 		bl	MotorISR_SetVector
 390              	.LVL28:
 117:Generated_Source\PSoC5/MotorISR.c **** 
 391              		.loc 1 117 0
 392 000e 0020     		movs	r0, #0
 393 0010 FFF7FEFF 		bl	MotorISR_SetPriority
 394              	.LVL29:
ARM GAS  C:\Users\chascha\AppData\Local\Temp\ccRPAAFb.s 			page 15


 120:Generated_Source\PSoC5/MotorISR.c **** }
 395              		.loc 1 120 0
 396 0014 FFF7FEFF 		bl	MotorISR_Enable
 397              	.LVL30:
 398 0018 10BD     		pop	{r4, pc}
 399              		.cfi_endproc
 400              	.LFE2:
 401              		.size	MotorISR_StartEx, .-MotorISR_StartEx
 402 001a 00BF     		.section	.text.MotorISR_Stop,"ax",%progbits
 403              		.align	2
 404              		.global	MotorISR_Stop
 405              		.thumb
 406              		.thumb_func
 407              		.type	MotorISR_Stop, %function
 408              	MotorISR_Stop:
 409              	.LFB3:
 139:Generated_Source\PSoC5/MotorISR.c ****     /* Disable this interrupt. */
 410              		.loc 1 139 0
 411              		.cfi_startproc
 412              		@ args = 0, pretend = 0, frame = 0
 413              		@ frame_needed = 0, uses_anonymous_args = 0
 414 0000 08B5     		push	{r3, lr}
 415              		.cfi_def_cfa_offset 8
 416              		.cfi_offset 3, -8
 417              		.cfi_offset 14, -4
 141:Generated_Source\PSoC5/MotorISR.c **** 
 418              		.loc 1 141 0
 419 0002 FFF7FEFF 		bl	MotorISR_Disable
 420              	.LVL31:
 144:Generated_Source\PSoC5/MotorISR.c **** }
 421              		.loc 1 144 0
 422 0006 0248     		ldr	r0, .L44
 423 0008 FFF7FEFF 		bl	MotorISR_SetVector
 424              	.LVL32:
 425 000c 08BD     		pop	{r3, pc}
 426              	.L45:
 427 000e 00BF     		.align	2
 428              	.L44:
 429 0010 00000000 		.word	IntDefaultHandler
 430              		.cfi_endproc
 431              	.LFE3:
 432              		.size	MotorISR_Stop, .-MotorISR_Stop
 433              		.section	.text.MotorISR_SetPending,"ax",%progbits
 434              		.align	2
 435              		.global	MotorISR_SetPending
 436              		.thumb
 437              		.thumb_func
 438              		.type	MotorISR_SetPending, %function
 439              	MotorISR_SetPending:
 440              	.LFB12:
 396:Generated_Source\PSoC5/MotorISR.c **** }
 397:Generated_Source\PSoC5/MotorISR.c **** 
 398:Generated_Source\PSoC5/MotorISR.c **** 
 399:Generated_Source\PSoC5/MotorISR.c **** /*******************************************************************************
 400:Generated_Source\PSoC5/MotorISR.c **** * Function Name: MotorISR_SetPending
 401:Generated_Source\PSoC5/MotorISR.c **** ********************************************************************************
 402:Generated_Source\PSoC5/MotorISR.c **** *
ARM GAS  C:\Users\chascha\AppData\Local\Temp\ccRPAAFb.s 			page 16


 403:Generated_Source\PSoC5/MotorISR.c **** * Summary:
 404:Generated_Source\PSoC5/MotorISR.c **** *   Causes the Interrupt to enter the pending state, a software method of
 405:Generated_Source\PSoC5/MotorISR.c **** *   generating the interrupt.
 406:Generated_Source\PSoC5/MotorISR.c **** *
 407:Generated_Source\PSoC5/MotorISR.c **** * Parameters:
 408:Generated_Source\PSoC5/MotorISR.c **** *   None
 409:Generated_Source\PSoC5/MotorISR.c **** *
 410:Generated_Source\PSoC5/MotorISR.c **** * Return:
 411:Generated_Source\PSoC5/MotorISR.c **** *   None
 412:Generated_Source\PSoC5/MotorISR.c **** *
 413:Generated_Source\PSoC5/MotorISR.c **** * Side Effects:
 414:Generated_Source\PSoC5/MotorISR.c **** *   If interrupts are enabled and the interrupt is set up properly, the ISR is
 415:Generated_Source\PSoC5/MotorISR.c **** *   entered (depending on the priority of this interrupt and other pending 
 416:Generated_Source\PSoC5/MotorISR.c **** *   interrupts).
 417:Generated_Source\PSoC5/MotorISR.c **** *
 418:Generated_Source\PSoC5/MotorISR.c **** *******************************************************************************/
 419:Generated_Source\PSoC5/MotorISR.c **** void MotorISR_SetPending(void)
 420:Generated_Source\PSoC5/MotorISR.c **** {
 441              		.loc 1 420 0
 442              		.cfi_startproc
 443              		@ args = 0, pretend = 0, frame = 0
 444              		@ frame_needed = 0, uses_anonymous_args = 0
 445              		@ link register save eliminated.
 421:Generated_Source\PSoC5/MotorISR.c ****     *MotorISR_INTC_SET_PD = MotorISR__INTC_MASK;
 446              		.loc 1 421 0
 447 0000 4FF40032 		mov	r2, #131072
 448 0004 014B     		ldr	r3, .L47
 449 0006 1A60     		str	r2, [r3]
 450 0008 7047     		bx	lr
 451              	.L48:
 452 000a 00BF     		.align	2
 453              	.L47:
 454 000c 00E200E0 		.word	-536813056
 455              		.cfi_endproc
 456              	.LFE12:
 457              		.size	MotorISR_SetPending, .-MotorISR_SetPending
 458              		.section	.text.MotorISR_ClearPending,"ax",%progbits
 459              		.align	2
 460              		.global	MotorISR_ClearPending
 461              		.thumb
 462              		.thumb_func
 463              		.type	MotorISR_ClearPending, %function
 464              	MotorISR_ClearPending:
 465              	.LFB13:
 422:Generated_Source\PSoC5/MotorISR.c **** }
 423:Generated_Source\PSoC5/MotorISR.c **** 
 424:Generated_Source\PSoC5/MotorISR.c **** 
 425:Generated_Source\PSoC5/MotorISR.c **** /*******************************************************************************
 426:Generated_Source\PSoC5/MotorISR.c **** * Function Name: MotorISR_ClearPending
 427:Generated_Source\PSoC5/MotorISR.c **** ********************************************************************************
 428:Generated_Source\PSoC5/MotorISR.c **** *
 429:Generated_Source\PSoC5/MotorISR.c **** * Summary:
 430:Generated_Source\PSoC5/MotorISR.c **** *   Clears a pending interrupt in the interrupt controller.
 431:Generated_Source\PSoC5/MotorISR.c **** *
 432:Generated_Source\PSoC5/MotorISR.c **** *   Note Some interrupt sources are clear-on-read and require the block 
 433:Generated_Source\PSoC5/MotorISR.c **** *   interrupt/status register to be read/cleared with the appropriate block API 
 434:Generated_Source\PSoC5/MotorISR.c **** *   (GPIO, UART, and so on). Otherwise the ISR will continue to remain in 
ARM GAS  C:\Users\chascha\AppData\Local\Temp\ccRPAAFb.s 			page 17


 435:Generated_Source\PSoC5/MotorISR.c **** *   pending state even though the interrupt itself is cleared using this API.
 436:Generated_Source\PSoC5/MotorISR.c **** *
 437:Generated_Source\PSoC5/MotorISR.c **** * Parameters:
 438:Generated_Source\PSoC5/MotorISR.c **** *   None
 439:Generated_Source\PSoC5/MotorISR.c **** *
 440:Generated_Source\PSoC5/MotorISR.c **** * Return:
 441:Generated_Source\PSoC5/MotorISR.c **** *   None
 442:Generated_Source\PSoC5/MotorISR.c **** *
 443:Generated_Source\PSoC5/MotorISR.c **** *******************************************************************************/
 444:Generated_Source\PSoC5/MotorISR.c **** void MotorISR_ClearPending(void)
 445:Generated_Source\PSoC5/MotorISR.c **** {
 466              		.loc 1 445 0
 467              		.cfi_startproc
 468              		@ args = 0, pretend = 0, frame = 0
 469              		@ frame_needed = 0, uses_anonymous_args = 0
 470              		@ link register save eliminated.
 446:Generated_Source\PSoC5/MotorISR.c ****     *MotorISR_INTC_CLR_PD = MotorISR__INTC_MASK;
 471              		.loc 1 446 0
 472 0000 4FF40032 		mov	r2, #131072
 473 0004 014B     		ldr	r3, .L50
 474 0006 1A60     		str	r2, [r3]
 475 0008 7047     		bx	lr
 476              	.L51:
 477 000a 00BF     		.align	2
 478              	.L50:
 479 000c 80E200E0 		.word	-536812928
 480              		.cfi_endproc
 481              	.LFE13:
 482              		.size	MotorISR_ClearPending, .-MotorISR_ClearPending
 483              		.comm	mFlag,1,1
 484              		.text
 485              	.Letext0:
 486              		.file 2 "Generated_Source\\PSoC5/cytypes.h"
 487              		.file 3 "Generated_Source\\PSoC5\\Motor.h"
 488              		.file 4 "Generated_Source\\PSoC5\\MotorTimer.h"