ARM GAS  C:\Users\chascha\AppData\Local\Temp\ccca7Ey9.s 			page 1


   1              		.syntax unified
   2              		.cpu cortex-m3
   3              		.fpu softvfp
   4              		.eabi_attribute 20, 1
   5              		.eabi_attribute 21, 1
   6              		.eabi_attribute 23, 3
   7              		.eabi_attribute 24, 1
   8              		.eabi_attribute 25, 1
   9              		.eabi_attribute 26, 1
  10              		.eabi_attribute 30, 1
  11              		.eabi_attribute 34, 1
  12              		.eabi_attribute 18, 4
  13              		.thumb
  14              		.syntax unified
  15              		.file	"OverwriteISR.c"
  16              		.text
  17              	.Ltext0:
  18              		.cfi_sections	.debug_frame
  19              		.section	.text.OverwriteISR_Interrupt,"ax",%progbits
  20              		.align	2
  21              		.global	OverwriteISR_Interrupt
  22              		.thumb
  23              		.thumb_func
  24              		.type	OverwriteISR_Interrupt, %function
  25              	OverwriteISR_Interrupt:
  26              	.LFB4:
  27              		.file 1 "Generated_Source\\PSoC5\\OverwriteISR.c"
   1:Generated_Source\PSoC5/OverwriteISR.c **** /*******************************************************************************
   2:Generated_Source\PSoC5/OverwriteISR.c **** * File Name: OverwriteISR.c  
   3:Generated_Source\PSoC5/OverwriteISR.c **** * Version 1.71
   4:Generated_Source\PSoC5/OverwriteISR.c **** *
   5:Generated_Source\PSoC5/OverwriteISR.c **** *  Description:
   6:Generated_Source\PSoC5/OverwriteISR.c **** *   API for controlling the state of an interrupt.
   7:Generated_Source\PSoC5/OverwriteISR.c **** *
   8:Generated_Source\PSoC5/OverwriteISR.c **** *
   9:Generated_Source\PSoC5/OverwriteISR.c **** *  Note:
  10:Generated_Source\PSoC5/OverwriteISR.c **** *
  11:Generated_Source\PSoC5/OverwriteISR.c **** ********************************************************************************
  12:Generated_Source\PSoC5/OverwriteISR.c **** * Copyright 2008-2015, Cypress Semiconductor Corporation.  All rights reserved.
  13:Generated_Source\PSoC5/OverwriteISR.c **** * You may use this file only in accordance with the license, terms, conditions, 
  14:Generated_Source\PSoC5/OverwriteISR.c **** * disclaimers, and limitations in the end user license agreement accompanying 
  15:Generated_Source\PSoC5/OverwriteISR.c **** * the software package with which this file was provided.
  16:Generated_Source\PSoC5/OverwriteISR.c **** *******************************************************************************/
  17:Generated_Source\PSoC5/OverwriteISR.c **** 
  18:Generated_Source\PSoC5/OverwriteISR.c **** 
  19:Generated_Source\PSoC5/OverwriteISR.c **** #include <cydevice_trm.h>
  20:Generated_Source\PSoC5/OverwriteISR.c **** #include <CyLib.h>
  21:Generated_Source\PSoC5/OverwriteISR.c **** #include <OverwriteISR.h>
  22:Generated_Source\PSoC5/OverwriteISR.c **** #include "cyapicallbacks.h"
  23:Generated_Source\PSoC5/OverwriteISR.c **** 
  24:Generated_Source\PSoC5/OverwriteISR.c **** #if !defined(OverwriteISR__REMOVED) /* Check for removal by optimization */
  25:Generated_Source\PSoC5/OverwriteISR.c **** 
  26:Generated_Source\PSoC5/OverwriteISR.c **** /*******************************************************************************
  27:Generated_Source\PSoC5/OverwriteISR.c **** *  Place your includes, defines and code here 
  28:Generated_Source\PSoC5/OverwriteISR.c **** ********************************************************************************/
  29:Generated_Source\PSoC5/OverwriteISR.c **** /* `#START OverwriteISR_intc` */
  30:Generated_Source\PSoC5/OverwriteISR.c ****     volatile uint8 FPSID;
ARM GAS  C:\Users\chascha\AppData\Local\Temp\ccca7Ey9.s 			page 2


  31:Generated_Source\PSoC5/OverwriteISR.c ****     volatile unsigned int mPos;
  32:Generated_Source\PSoC5/OverwriteISR.c ****     volatile char mFlag;
  33:Generated_Source\PSoC5/OverwriteISR.c ****     
  34:Generated_Source\PSoC5/OverwriteISR.c ****     #include "stdio.h"
  35:Generated_Source\PSoC5/OverwriteISR.c ****     #include "UART.h"
  36:Generated_Source\PSoC5/OverwriteISR.c ****     #include "I2C.h"
  37:Generated_Source\PSoC5/OverwriteISR.c ****     #include "LCD_I2C_FUNCS.h"
  38:Generated_Source\PSoC5/OverwriteISR.c **** 
  39:Generated_Source\PSoC5/OverwriteISR.c **** /* `#END` */
  40:Generated_Source\PSoC5/OverwriteISR.c **** 
  41:Generated_Source\PSoC5/OverwriteISR.c **** #ifndef CYINT_IRQ_BASE
  42:Generated_Source\PSoC5/OverwriteISR.c **** #define CYINT_IRQ_BASE      16
  43:Generated_Source\PSoC5/OverwriteISR.c **** #endif /* CYINT_IRQ_BASE */
  44:Generated_Source\PSoC5/OverwriteISR.c **** #ifndef CYINT_VECT_TABLE
  45:Generated_Source\PSoC5/OverwriteISR.c **** #define CYINT_VECT_TABLE    ((cyisraddress **) CYREG_NVIC_VECT_OFFSET)
  46:Generated_Source\PSoC5/OverwriteISR.c **** #endif /* CYINT_VECT_TABLE */
  47:Generated_Source\PSoC5/OverwriteISR.c **** 
  48:Generated_Source\PSoC5/OverwriteISR.c **** /* Declared in startup, used to set unused interrupts to. */
  49:Generated_Source\PSoC5/OverwriteISR.c **** CY_ISR_PROTO(IntDefaultHandler);
  50:Generated_Source\PSoC5/OverwriteISR.c **** 
  51:Generated_Source\PSoC5/OverwriteISR.c **** 
  52:Generated_Source\PSoC5/OverwriteISR.c **** /*******************************************************************************
  53:Generated_Source\PSoC5/OverwriteISR.c **** * Function Name: OverwriteISR_Start
  54:Generated_Source\PSoC5/OverwriteISR.c **** ********************************************************************************
  55:Generated_Source\PSoC5/OverwriteISR.c **** *
  56:Generated_Source\PSoC5/OverwriteISR.c **** * Summary:
  57:Generated_Source\PSoC5/OverwriteISR.c **** *  Set up the interrupt and enable it. This function disables the interrupt, 
  58:Generated_Source\PSoC5/OverwriteISR.c **** *  sets the default interrupt vector, sets the priority from the value in the
  59:Generated_Source\PSoC5/OverwriteISR.c **** *  Design Wide Resources Interrupt Editor, then enables the interrupt to the 
  60:Generated_Source\PSoC5/OverwriteISR.c **** *  interrupt controller.
  61:Generated_Source\PSoC5/OverwriteISR.c **** *
  62:Generated_Source\PSoC5/OverwriteISR.c **** * Parameters:  
  63:Generated_Source\PSoC5/OverwriteISR.c **** *   None
  64:Generated_Source\PSoC5/OverwriteISR.c **** *
  65:Generated_Source\PSoC5/OverwriteISR.c **** * Return:
  66:Generated_Source\PSoC5/OverwriteISR.c **** *   None
  67:Generated_Source\PSoC5/OverwriteISR.c **** *
  68:Generated_Source\PSoC5/OverwriteISR.c **** *******************************************************************************/
  69:Generated_Source\PSoC5/OverwriteISR.c **** void OverwriteISR_Start(void)
  70:Generated_Source\PSoC5/OverwriteISR.c **** {
  71:Generated_Source\PSoC5/OverwriteISR.c ****     /* For all we know the interrupt is active. */
  72:Generated_Source\PSoC5/OverwriteISR.c ****     OverwriteISR_Disable();
  73:Generated_Source\PSoC5/OverwriteISR.c **** 
  74:Generated_Source\PSoC5/OverwriteISR.c ****     /* Set the ISR to point to the OverwriteISR Interrupt. */
  75:Generated_Source\PSoC5/OverwriteISR.c ****     OverwriteISR_SetVector(&OverwriteISR_Interrupt);
  76:Generated_Source\PSoC5/OverwriteISR.c **** 
  77:Generated_Source\PSoC5/OverwriteISR.c ****     /* Set the priority. */
  78:Generated_Source\PSoC5/OverwriteISR.c ****     OverwriteISR_SetPriority((uint8)OverwriteISR_INTC_PRIOR_NUMBER);
  79:Generated_Source\PSoC5/OverwriteISR.c **** 
  80:Generated_Source\PSoC5/OverwriteISR.c ****     /* Enable it. */
  81:Generated_Source\PSoC5/OverwriteISR.c ****     OverwriteISR_Enable();
  82:Generated_Source\PSoC5/OverwriteISR.c **** }
  83:Generated_Source\PSoC5/OverwriteISR.c **** 
  84:Generated_Source\PSoC5/OverwriteISR.c **** 
  85:Generated_Source\PSoC5/OverwriteISR.c **** /*******************************************************************************
  86:Generated_Source\PSoC5/OverwriteISR.c **** * Function Name: OverwriteISR_StartEx
  87:Generated_Source\PSoC5/OverwriteISR.c **** ********************************************************************************
ARM GAS  C:\Users\chascha\AppData\Local\Temp\ccca7Ey9.s 			page 3


  88:Generated_Source\PSoC5/OverwriteISR.c **** *
  89:Generated_Source\PSoC5/OverwriteISR.c **** * Summary:
  90:Generated_Source\PSoC5/OverwriteISR.c **** *  Sets up the interrupt and enables it. This function disables the interrupt,
  91:Generated_Source\PSoC5/OverwriteISR.c **** *  sets the interrupt vector based on the address passed in, sets the priority 
  92:Generated_Source\PSoC5/OverwriteISR.c **** *  from the value in the Design Wide Resources Interrupt Editor, then enables 
  93:Generated_Source\PSoC5/OverwriteISR.c **** *  the interrupt to the interrupt controller.
  94:Generated_Source\PSoC5/OverwriteISR.c **** *  
  95:Generated_Source\PSoC5/OverwriteISR.c **** *  When defining ISR functions, the CY_ISR and CY_ISR_PROTO macros should be 
  96:Generated_Source\PSoC5/OverwriteISR.c **** *  used to provide consistent definition across compilers:
  97:Generated_Source\PSoC5/OverwriteISR.c **** *  
  98:Generated_Source\PSoC5/OverwriteISR.c **** *  Function definition example:
  99:Generated_Source\PSoC5/OverwriteISR.c **** *   CY_ISR(MyISR)
 100:Generated_Source\PSoC5/OverwriteISR.c **** *   {
 101:Generated_Source\PSoC5/OverwriteISR.c **** *   }
 102:Generated_Source\PSoC5/OverwriteISR.c **** *   Function prototype example:
 103:Generated_Source\PSoC5/OverwriteISR.c **** *   CY_ISR_PROTO(MyISR);
 104:Generated_Source\PSoC5/OverwriteISR.c **** *
 105:Generated_Source\PSoC5/OverwriteISR.c **** * Parameters:  
 106:Generated_Source\PSoC5/OverwriteISR.c **** *   address: Address of the ISR to set in the interrupt vector table.
 107:Generated_Source\PSoC5/OverwriteISR.c **** *
 108:Generated_Source\PSoC5/OverwriteISR.c **** * Return:
 109:Generated_Source\PSoC5/OverwriteISR.c **** *   None
 110:Generated_Source\PSoC5/OverwriteISR.c **** *
 111:Generated_Source\PSoC5/OverwriteISR.c **** *******************************************************************************/
 112:Generated_Source\PSoC5/OverwriteISR.c **** void OverwriteISR_StartEx(cyisraddress address)
 113:Generated_Source\PSoC5/OverwriteISR.c **** {
 114:Generated_Source\PSoC5/OverwriteISR.c ****     /* For all we know the interrupt is active. */
 115:Generated_Source\PSoC5/OverwriteISR.c ****     OverwriteISR_Disable();
 116:Generated_Source\PSoC5/OverwriteISR.c **** 
 117:Generated_Source\PSoC5/OverwriteISR.c ****     /* Set the ISR to point to the OverwriteISR Interrupt. */
 118:Generated_Source\PSoC5/OverwriteISR.c ****     OverwriteISR_SetVector(address);
 119:Generated_Source\PSoC5/OverwriteISR.c **** 
 120:Generated_Source\PSoC5/OverwriteISR.c ****     /* Set the priority. */
 121:Generated_Source\PSoC5/OverwriteISR.c ****     OverwriteISR_SetPriority((uint8)OverwriteISR_INTC_PRIOR_NUMBER);
 122:Generated_Source\PSoC5/OverwriteISR.c **** 
 123:Generated_Source\PSoC5/OverwriteISR.c ****     /* Enable it. */
 124:Generated_Source\PSoC5/OverwriteISR.c ****     OverwriteISR_Enable();
 125:Generated_Source\PSoC5/OverwriteISR.c **** }
 126:Generated_Source\PSoC5/OverwriteISR.c **** 
 127:Generated_Source\PSoC5/OverwriteISR.c **** 
 128:Generated_Source\PSoC5/OverwriteISR.c **** /*******************************************************************************
 129:Generated_Source\PSoC5/OverwriteISR.c **** * Function Name: OverwriteISR_Stop
 130:Generated_Source\PSoC5/OverwriteISR.c **** ********************************************************************************
 131:Generated_Source\PSoC5/OverwriteISR.c **** *
 132:Generated_Source\PSoC5/OverwriteISR.c **** * Summary:
 133:Generated_Source\PSoC5/OverwriteISR.c **** *   Disables and removes the interrupt.
 134:Generated_Source\PSoC5/OverwriteISR.c **** *
 135:Generated_Source\PSoC5/OverwriteISR.c **** * Parameters:  
 136:Generated_Source\PSoC5/OverwriteISR.c **** *   None
 137:Generated_Source\PSoC5/OverwriteISR.c **** *
 138:Generated_Source\PSoC5/OverwriteISR.c **** * Return:
 139:Generated_Source\PSoC5/OverwriteISR.c **** *   None
 140:Generated_Source\PSoC5/OverwriteISR.c **** *
 141:Generated_Source\PSoC5/OverwriteISR.c **** *******************************************************************************/
 142:Generated_Source\PSoC5/OverwriteISR.c **** void OverwriteISR_Stop(void)
 143:Generated_Source\PSoC5/OverwriteISR.c **** {
 144:Generated_Source\PSoC5/OverwriteISR.c ****     /* Disable this interrupt. */
ARM GAS  C:\Users\chascha\AppData\Local\Temp\ccca7Ey9.s 			page 4


 145:Generated_Source\PSoC5/OverwriteISR.c ****     OverwriteISR_Disable();
 146:Generated_Source\PSoC5/OverwriteISR.c **** 
 147:Generated_Source\PSoC5/OverwriteISR.c ****     /* Set the ISR to point to the passive one. */
 148:Generated_Source\PSoC5/OverwriteISR.c ****     OverwriteISR_SetVector(&IntDefaultHandler);
 149:Generated_Source\PSoC5/OverwriteISR.c **** }
 150:Generated_Source\PSoC5/OverwriteISR.c **** 
 151:Generated_Source\PSoC5/OverwriteISR.c **** 
 152:Generated_Source\PSoC5/OverwriteISR.c **** /*******************************************************************************
 153:Generated_Source\PSoC5/OverwriteISR.c **** * Function Name: OverwriteISR_Interrupt
 154:Generated_Source\PSoC5/OverwriteISR.c **** ********************************************************************************
 155:Generated_Source\PSoC5/OverwriteISR.c **** *
 156:Generated_Source\PSoC5/OverwriteISR.c **** * Summary:
 157:Generated_Source\PSoC5/OverwriteISR.c **** *   The default Interrupt Service Routine for OverwriteISR.
 158:Generated_Source\PSoC5/OverwriteISR.c **** *
 159:Generated_Source\PSoC5/OverwriteISR.c **** *   Add custom code between the coments to keep the next version of this file
 160:Generated_Source\PSoC5/OverwriteISR.c **** *   from over writting your code.
 161:Generated_Source\PSoC5/OverwriteISR.c **** *
 162:Generated_Source\PSoC5/OverwriteISR.c **** * Parameters:  
 163:Generated_Source\PSoC5/OverwriteISR.c **** *
 164:Generated_Source\PSoC5/OverwriteISR.c **** * Return:
 165:Generated_Source\PSoC5/OverwriteISR.c **** *   None
 166:Generated_Source\PSoC5/OverwriteISR.c **** *
 167:Generated_Source\PSoC5/OverwriteISR.c **** *******************************************************************************/
 168:Generated_Source\PSoC5/OverwriteISR.c **** CY_ISR(OverwriteISR_Interrupt)
 169:Generated_Source\PSoC5/OverwriteISR.c **** {
  28              		.loc 1 169 0
  29              		.cfi_startproc
  30              		@ args = 0, pretend = 0, frame = 16
  31              		@ frame_needed = 0, uses_anonymous_args = 0
  32 0000 30B5     		push	{r4, r5, lr}
  33              		.cfi_def_cfa_offset 12
  34              		.cfi_offset 4, -12
  35              		.cfi_offset 5, -8
  36              		.cfi_offset 14, -4
  37 0002 85B0     		sub	sp, sp, #20
  38              		.cfi_def_cfa_offset 32
 170:Generated_Source\PSoC5/OverwriteISR.c ****     #ifdef OverwriteISR_INTERRUPT_INTERRUPT_CALLBACK
 171:Generated_Source\PSoC5/OverwriteISR.c ****         OverwriteISR_Interrupt_InterruptCallback();
 172:Generated_Source\PSoC5/OverwriteISR.c ****     #endif /* OverwriteISR_INTERRUPT_INTERRUPT_CALLBACK */ 
 173:Generated_Source\PSoC5/OverwriteISR.c **** 
 174:Generated_Source\PSoC5/OverwriteISR.c ****     /*  Place your Interrupt code here. */
 175:Generated_Source\PSoC5/OverwriteISR.c ****     /* `#START OverwriteISR_Interrupt` */
 176:Generated_Source\PSoC5/OverwriteISR.c ****     I2C_Start();
  39              		.loc 1 176 0
  40 0004 FFF7FEFF 		bl	I2C_Start
  41              	.LVL0:
 177:Generated_Source\PSoC5/OverwriteISR.c ****     uint8 arr[2];
 178:Generated_Source\PSoC5/OverwriteISR.c ****     arr[0] = FPSID;
  42              		.loc 1 178 0
  43 0008 264B     		ldr	r3, .L4
  44 000a 1B78     		ldrb	r3, [r3]	@ zero_extendqisi2
  45 000c 8DF80C30 		strb	r3, [sp, #12]
 179:Generated_Source\PSoC5/OverwriteISR.c ****     arr[1] = mPos;
  46              		.loc 1 179 0
  47 0010 254B     		ldr	r3, .L4+4
  48 0012 1B68     		ldr	r3, [r3]
  49 0014 8DF80D30 		strb	r3, [sp, #13]
ARM GAS  C:\Users\chascha\AppData\Local\Temp\ccca7Ey9.s 			page 5


 180:Generated_Source\PSoC5/OverwriteISR.c ****     I2C_MasterWriteBuf(0b01010000, arr, 2, I2C_MODE_COMPLETE_XFER);
  50              		.loc 1 180 0
  51 0018 0023     		movs	r3, #0
  52 001a 0222     		movs	r2, #2
  53 001c 03A9     		add	r1, sp, #12
  54 001e 5020     		movs	r0, #80
  55 0020 FFF7FEFF 		bl	I2C_MasterWriteBuf
  56              	.LVL1:
  57              	.L2:
 181:Generated_Source\PSoC5/OverwriteISR.c ****     while (!(I2C_MasterStatus() & I2C_MSTAT_WR_CMPLT));
  58              		.loc 1 181 0 discriminator 1
  59 0024 FFF7FEFF 		bl	I2C_MasterStatus
  60              	.LVL2:
  61 0028 10F0020F 		tst	r0, #2
  62 002c FAD0     		beq	.L2
 182:Generated_Source\PSoC5/OverwriteISR.c ****     I2C_MasterClearStatus();
  63              		.loc 1 182 0
  64 002e FFF7FEFF 		bl	I2C_MasterClearStatus
  65              	.LVL3:
 183:Generated_Source\PSoC5/OverwriteISR.c ****     CyDelay(5);
  66              		.loc 1 183 0
  67 0032 0520     		movs	r0, #5
  68 0034 FFF7FEFF 		bl	CyDelay
  69              	.LVL4:
 184:Generated_Source\PSoC5/OverwriteISR.c ****     char id[1];
 185:Generated_Source\PSoC5/OverwriteISR.c ****     char newcpos[1];
 186:Generated_Source\PSoC5/OverwriteISR.c ****     char mpos[1];
 187:Generated_Source\PSoC5/OverwriteISR.c ****     
 188:Generated_Source\PSoC5/OverwriteISR.c ****     LCD_I2C_clear();
  70              		.loc 1 188 0
  71 0038 FFF7FEFF 		bl	LCD_I2C_clear
  72              	.LVL5:
 189:Generated_Source\PSoC5/OverwriteISR.c ****     LCD_I2C_setCursor(0,0);
  73              		.loc 1 189 0
  74 003c 0021     		movs	r1, #0
  75 003e 0846     		mov	r0, r1
  76 0040 FFF7FEFF 		bl	LCD_I2C_setCursor
  77              	.LVL6:
 190:Generated_Source\PSoC5/OverwriteISR.c ****     LCD_I2C_print("ID:");
  78              		.loc 1 190 0
  79 0044 1948     		ldr	r0, .L4+8
  80 0046 FFF7FEFF 		bl	LCD_I2C_print
  81              	.LVL7:
 191:Generated_Source\PSoC5/OverwriteISR.c ****     sprintf(id, "%d", FPSID);
  82              		.loc 1 191 0
  83 004a 164B     		ldr	r3, .L4
  84 004c 1A78     		ldrb	r2, [r3]	@ zero_extendqisi2
  85 004e 184C     		ldr	r4, .L4+12
  86 0050 2146     		mov	r1, r4
  87 0052 02A8     		add	r0, sp, #8
  88 0054 FFF7FEFF 		bl	sprintf
  89              	.LVL8:
 192:Generated_Source\PSoC5/OverwriteISR.c ****     LCD_I2C_print(id);
  90              		.loc 1 192 0
  91 0058 02A8     		add	r0, sp, #8
  92 005a FFF7FEFF 		bl	LCD_I2C_print
  93              	.LVL9:
ARM GAS  C:\Users\chascha\AppData\Local\Temp\ccca7Ey9.s 			page 6


 193:Generated_Source\PSoC5/OverwriteISR.c ****     LCD_I2C_setCursor(6,0);
  94              		.loc 1 193 0
  95 005e 0021     		movs	r1, #0
  96 0060 0620     		movs	r0, #6
  97 0062 FFF7FEFF 		bl	LCD_I2C_setCursor
  98              	.LVL10:
 194:Generated_Source\PSoC5/OverwriteISR.c ****     LCD_I2C_print("rPos:");
  99              		.loc 1 194 0
 100 0066 1348     		ldr	r0, .L4+16
 101 0068 FFF7FEFF 		bl	LCD_I2C_print
 102              	.LVL11:
 195:Generated_Source\PSoC5/OverwriteISR.c ****     sprintf(newcpos, "%d", mPos);
 103              		.loc 1 195 0
 104 006c 0E4D     		ldr	r5, .L4+4
 105 006e 2A68     		ldr	r2, [r5]
 106 0070 2146     		mov	r1, r4
 107 0072 01A8     		add	r0, sp, #4
 108 0074 FFF7FEFF 		bl	sprintf
 109              	.LVL12:
 196:Generated_Source\PSoC5/OverwriteISR.c ****     LCD_I2C_print(newcpos);
 110              		.loc 1 196 0
 111 0078 01A8     		add	r0, sp, #4
 112 007a FFF7FEFF 		bl	LCD_I2C_print
 113              	.LVL13:
 197:Generated_Source\PSoC5/OverwriteISR.c ****     sprintf(mpos, "%d", mPos);
 114              		.loc 1 197 0
 115 007e 2A68     		ldr	r2, [r5]
 116 0080 2146     		mov	r1, r4
 117 0082 6846     		mov	r0, sp
 118 0084 FFF7FEFF 		bl	sprintf
 119              	.LVL14:
 198:Generated_Source\PSoC5/OverwriteISR.c ****     LCD_I2C_setCursor(0,1);
 120              		.loc 1 198 0
 121 0088 0121     		movs	r1, #1
 122 008a 0020     		movs	r0, #0
 123 008c FFF7FEFF 		bl	LCD_I2C_setCursor
 124              	.LVL15:
 199:Generated_Source\PSoC5/OverwriteISR.c ****     LCD_I2C_print("cPos:");
 125              		.loc 1 199 0
 126 0090 0948     		ldr	r0, .L4+20
 127 0092 FFF7FEFF 		bl	LCD_I2C_print
 128              	.LVL16:
 200:Generated_Source\PSoC5/OverwriteISR.c ****     LCD_I2C_print(mpos);
 129              		.loc 1 200 0
 130 0096 6846     		mov	r0, sp
 131 0098 FFF7FEFF 		bl	LCD_I2C_print
 132              	.LVL17:
 201:Generated_Source\PSoC5/OverwriteISR.c ****     I2C_Stop();
 133              		.loc 1 201 0
 134 009c FFF7FEFF 		bl	I2C_Stop
 135              	.LVL18:
 202:Generated_Source\PSoC5/OverwriteISR.c ****     /* `#END` */
 203:Generated_Source\PSoC5/OverwriteISR.c **** }
 136              		.loc 1 203 0
 137 00a0 05B0     		add	sp, sp, #20
 138              		.cfi_def_cfa_offset 12
 139              		@ sp needed
ARM GAS  C:\Users\chascha\AppData\Local\Temp\ccca7Ey9.s 			page 7


 140 00a2 30BD     		pop	{r4, r5, pc}
 141              	.L5:
 142              		.align	2
 143              	.L4:
 144 00a4 00000000 		.word	FPSID
 145 00a8 00000000 		.word	mPos
 146 00ac 00000000 		.word	.LC0
 147 00b0 04000000 		.word	.LC1
 148 00b4 08000000 		.word	.LC2
 149 00b8 10000000 		.word	.LC3
 150              		.cfi_endproc
 151              	.LFE4:
 152              		.size	OverwriteISR_Interrupt, .-OverwriteISR_Interrupt
 153              		.section	.text.OverwriteISR_SetVector,"ax",%progbits
 154              		.align	2
 155              		.global	OverwriteISR_SetVector
 156              		.thumb
 157              		.thumb_func
 158              		.type	OverwriteISR_SetVector, %function
 159              	OverwriteISR_SetVector:
 160              	.LFB5:
 204:Generated_Source\PSoC5/OverwriteISR.c **** 
 205:Generated_Source\PSoC5/OverwriteISR.c **** 
 206:Generated_Source\PSoC5/OverwriteISR.c **** /*******************************************************************************
 207:Generated_Source\PSoC5/OverwriteISR.c **** * Function Name: OverwriteISR_SetVector
 208:Generated_Source\PSoC5/OverwriteISR.c **** ********************************************************************************
 209:Generated_Source\PSoC5/OverwriteISR.c **** *
 210:Generated_Source\PSoC5/OverwriteISR.c **** * Summary:
 211:Generated_Source\PSoC5/OverwriteISR.c **** *   Change the ISR vector for the Interrupt. Note calling OverwriteISR_Start
 212:Generated_Source\PSoC5/OverwriteISR.c **** *   will override any effect this method would have had. To set the vector 
 213:Generated_Source\PSoC5/OverwriteISR.c **** *   before the component has been started use OverwriteISR_StartEx instead.
 214:Generated_Source\PSoC5/OverwriteISR.c **** * 
 215:Generated_Source\PSoC5/OverwriteISR.c **** *   When defining ISR functions, the CY_ISR and CY_ISR_PROTO macros should be 
 216:Generated_Source\PSoC5/OverwriteISR.c **** *   used to provide consistent definition across compilers:
 217:Generated_Source\PSoC5/OverwriteISR.c **** *
 218:Generated_Source\PSoC5/OverwriteISR.c **** *   Function definition example:
 219:Generated_Source\PSoC5/OverwriteISR.c **** *   CY_ISR(MyISR)
 220:Generated_Source\PSoC5/OverwriteISR.c **** *   {
 221:Generated_Source\PSoC5/OverwriteISR.c **** *   }
 222:Generated_Source\PSoC5/OverwriteISR.c **** *
 223:Generated_Source\PSoC5/OverwriteISR.c **** *   Function prototype example:
 224:Generated_Source\PSoC5/OverwriteISR.c **** *     CY_ISR_PROTO(MyISR);
 225:Generated_Source\PSoC5/OverwriteISR.c **** *
 226:Generated_Source\PSoC5/OverwriteISR.c **** * Parameters:
 227:Generated_Source\PSoC5/OverwriteISR.c **** *   address: Address of the ISR to set in the interrupt vector table.
 228:Generated_Source\PSoC5/OverwriteISR.c **** *
 229:Generated_Source\PSoC5/OverwriteISR.c **** * Return:
 230:Generated_Source\PSoC5/OverwriteISR.c **** *   None
 231:Generated_Source\PSoC5/OverwriteISR.c **** *
 232:Generated_Source\PSoC5/OverwriteISR.c **** *******************************************************************************/
 233:Generated_Source\PSoC5/OverwriteISR.c **** void OverwriteISR_SetVector(cyisraddress address)
 234:Generated_Source\PSoC5/OverwriteISR.c **** {
 161              		.loc 1 234 0
 162              		.cfi_startproc
 163              		@ args = 0, pretend = 0, frame = 0
 164              		@ frame_needed = 0, uses_anonymous_args = 0
 165              		@ link register save eliminated.
ARM GAS  C:\Users\chascha\AppData\Local\Temp\ccca7Ey9.s 			page 8


 166              	.LVL19:
 235:Generated_Source\PSoC5/OverwriteISR.c ****     cyisraddress * ramVectorTable;
 236:Generated_Source\PSoC5/OverwriteISR.c **** 
 237:Generated_Source\PSoC5/OverwriteISR.c ****     ramVectorTable = (cyisraddress *) *CYINT_VECT_TABLE;
 167              		.loc 1 237 0
 168 0000 014B     		ldr	r3, .L7
 169 0002 1B68     		ldr	r3, [r3]
 170              	.LVL20:
 238:Generated_Source\PSoC5/OverwriteISR.c **** 
 239:Generated_Source\PSoC5/OverwriteISR.c ****     ramVectorTable[CYINT_IRQ_BASE + (uint32)OverwriteISR__INTC_NUMBER] = address;
 171              		.loc 1 239 0
 172 0004 9865     		str	r0, [r3, #88]
 173 0006 7047     		bx	lr
 174              	.L8:
 175              		.align	2
 176              	.L7:
 177 0008 08ED00E0 		.word	-536810232
 178              		.cfi_endproc
 179              	.LFE5:
 180              		.size	OverwriteISR_SetVector, .-OverwriteISR_SetVector
 181              		.section	.text.OverwriteISR_GetVector,"ax",%progbits
 182              		.align	2
 183              		.global	OverwriteISR_GetVector
 184              		.thumb
 185              		.thumb_func
 186              		.type	OverwriteISR_GetVector, %function
 187              	OverwriteISR_GetVector:
 188              	.LFB6:
 240:Generated_Source\PSoC5/OverwriteISR.c **** }
 241:Generated_Source\PSoC5/OverwriteISR.c **** 
 242:Generated_Source\PSoC5/OverwriteISR.c **** 
 243:Generated_Source\PSoC5/OverwriteISR.c **** /*******************************************************************************
 244:Generated_Source\PSoC5/OverwriteISR.c **** * Function Name: OverwriteISR_GetVector
 245:Generated_Source\PSoC5/OverwriteISR.c **** ********************************************************************************
 246:Generated_Source\PSoC5/OverwriteISR.c **** *
 247:Generated_Source\PSoC5/OverwriteISR.c **** * Summary:
 248:Generated_Source\PSoC5/OverwriteISR.c **** *   Gets the "address" of the current ISR vector for the Interrupt.
 249:Generated_Source\PSoC5/OverwriteISR.c **** *
 250:Generated_Source\PSoC5/OverwriteISR.c **** * Parameters:
 251:Generated_Source\PSoC5/OverwriteISR.c **** *   None
 252:Generated_Source\PSoC5/OverwriteISR.c **** *
 253:Generated_Source\PSoC5/OverwriteISR.c **** * Return:
 254:Generated_Source\PSoC5/OverwriteISR.c **** *   Address of the ISR in the interrupt vector table.
 255:Generated_Source\PSoC5/OverwriteISR.c **** *
 256:Generated_Source\PSoC5/OverwriteISR.c **** *******************************************************************************/
 257:Generated_Source\PSoC5/OverwriteISR.c **** cyisraddress OverwriteISR_GetVector(void)
 258:Generated_Source\PSoC5/OverwriteISR.c **** {
 189              		.loc 1 258 0
 190              		.cfi_startproc
 191              		@ args = 0, pretend = 0, frame = 0
 192              		@ frame_needed = 0, uses_anonymous_args = 0
 193              		@ link register save eliminated.
 259:Generated_Source\PSoC5/OverwriteISR.c ****     cyisraddress * ramVectorTable;
 260:Generated_Source\PSoC5/OverwriteISR.c **** 
 261:Generated_Source\PSoC5/OverwriteISR.c ****     ramVectorTable = (cyisraddress *) *CYINT_VECT_TABLE;
 194              		.loc 1 261 0
 195 0000 014B     		ldr	r3, .L10
ARM GAS  C:\Users\chascha\AppData\Local\Temp\ccca7Ey9.s 			page 9


 196 0002 1B68     		ldr	r3, [r3]
 197              	.LVL21:
 262:Generated_Source\PSoC5/OverwriteISR.c **** 
 263:Generated_Source\PSoC5/OverwriteISR.c ****     return ramVectorTable[CYINT_IRQ_BASE + (uint32)OverwriteISR__INTC_NUMBER];
 264:Generated_Source\PSoC5/OverwriteISR.c **** }
 198              		.loc 1 264 0
 199 0004 986D     		ldr	r0, [r3, #88]
 200 0006 7047     		bx	lr
 201              	.L11:
 202              		.align	2
 203              	.L10:
 204 0008 08ED00E0 		.word	-536810232
 205              		.cfi_endproc
 206              	.LFE6:
 207              		.size	OverwriteISR_GetVector, .-OverwriteISR_GetVector
 208              		.section	.text.OverwriteISR_SetPriority,"ax",%progbits
 209              		.align	2
 210              		.global	OverwriteISR_SetPriority
 211              		.thumb
 212              		.thumb_func
 213              		.type	OverwriteISR_SetPriority, %function
 214              	OverwriteISR_SetPriority:
 215              	.LFB7:
 265:Generated_Source\PSoC5/OverwriteISR.c **** 
 266:Generated_Source\PSoC5/OverwriteISR.c **** 
 267:Generated_Source\PSoC5/OverwriteISR.c **** /*******************************************************************************
 268:Generated_Source\PSoC5/OverwriteISR.c **** * Function Name: OverwriteISR_SetPriority
 269:Generated_Source\PSoC5/OverwriteISR.c **** ********************************************************************************
 270:Generated_Source\PSoC5/OverwriteISR.c **** *
 271:Generated_Source\PSoC5/OverwriteISR.c **** * Summary:
 272:Generated_Source\PSoC5/OverwriteISR.c **** *   Sets the Priority of the Interrupt. 
 273:Generated_Source\PSoC5/OverwriteISR.c **** *
 274:Generated_Source\PSoC5/OverwriteISR.c **** *   Note calling OverwriteISR_Start or OverwriteISR_StartEx will 
 275:Generated_Source\PSoC5/OverwriteISR.c **** *   override any effect this API would have had. This API should only be called
 276:Generated_Source\PSoC5/OverwriteISR.c **** *   after OverwriteISR_Start or OverwriteISR_StartEx has been called. 
 277:Generated_Source\PSoC5/OverwriteISR.c **** *   To set the initial priority for the component, use the Design-Wide Resources
 278:Generated_Source\PSoC5/OverwriteISR.c **** *   Interrupt Editor.
 279:Generated_Source\PSoC5/OverwriteISR.c **** *
 280:Generated_Source\PSoC5/OverwriteISR.c **** *   Note This API has no effect on Non-maskable interrupt NMI).
 281:Generated_Source\PSoC5/OverwriteISR.c **** *
 282:Generated_Source\PSoC5/OverwriteISR.c **** * Parameters:
 283:Generated_Source\PSoC5/OverwriteISR.c **** *   priority: Priority of the interrupt, 0 being the highest priority
 284:Generated_Source\PSoC5/OverwriteISR.c **** *             PSoC 3 and PSoC 5LP: Priority is from 0 to 7.
 285:Generated_Source\PSoC5/OverwriteISR.c **** *             PSoC 4: Priority is from 0 to 3.
 286:Generated_Source\PSoC5/OverwriteISR.c **** *
 287:Generated_Source\PSoC5/OverwriteISR.c **** * Return:
 288:Generated_Source\PSoC5/OverwriteISR.c **** *   None
 289:Generated_Source\PSoC5/OverwriteISR.c **** *
 290:Generated_Source\PSoC5/OverwriteISR.c **** *******************************************************************************/
 291:Generated_Source\PSoC5/OverwriteISR.c **** void OverwriteISR_SetPriority(uint8 priority)
 292:Generated_Source\PSoC5/OverwriteISR.c **** {
 216              		.loc 1 292 0
 217              		.cfi_startproc
 218              		@ args = 0, pretend = 0, frame = 0
 219              		@ frame_needed = 0, uses_anonymous_args = 0
 220              		@ link register save eliminated.
 221              	.LVL22:
ARM GAS  C:\Users\chascha\AppData\Local\Temp\ccca7Ey9.s 			page 10


 293:Generated_Source\PSoC5/OverwriteISR.c ****     *OverwriteISR_INTC_PRIOR = priority << 5;
 222              		.loc 1 293 0
 223 0000 4001     		lsls	r0, r0, #5
 224              	.LVL23:
 225 0002 C0B2     		uxtb	r0, r0
 226 0004 014B     		ldr	r3, .L13
 227 0006 1870     		strb	r0, [r3]
 228 0008 7047     		bx	lr
 229              	.L14:
 230 000a 00BF     		.align	2
 231              	.L13:
 232 000c 06E400E0 		.word	-536812538
 233              		.cfi_endproc
 234              	.LFE7:
 235              		.size	OverwriteISR_SetPriority, .-OverwriteISR_SetPriority
 236              		.section	.text.OverwriteISR_GetPriority,"ax",%progbits
 237              		.align	2
 238              		.global	OverwriteISR_GetPriority
 239              		.thumb
 240              		.thumb_func
 241              		.type	OverwriteISR_GetPriority, %function
 242              	OverwriteISR_GetPriority:
 243              	.LFB8:
 294:Generated_Source\PSoC5/OverwriteISR.c **** }
 295:Generated_Source\PSoC5/OverwriteISR.c **** 
 296:Generated_Source\PSoC5/OverwriteISR.c **** 
 297:Generated_Source\PSoC5/OverwriteISR.c **** /*******************************************************************************
 298:Generated_Source\PSoC5/OverwriteISR.c **** * Function Name: OverwriteISR_GetPriority
 299:Generated_Source\PSoC5/OverwriteISR.c **** ********************************************************************************
 300:Generated_Source\PSoC5/OverwriteISR.c **** *
 301:Generated_Source\PSoC5/OverwriteISR.c **** * Summary:
 302:Generated_Source\PSoC5/OverwriteISR.c **** *   Gets the Priority of the Interrupt.
 303:Generated_Source\PSoC5/OverwriteISR.c **** *
 304:Generated_Source\PSoC5/OverwriteISR.c **** * Parameters:
 305:Generated_Source\PSoC5/OverwriteISR.c **** *   None
 306:Generated_Source\PSoC5/OverwriteISR.c **** *
 307:Generated_Source\PSoC5/OverwriteISR.c **** * Return:
 308:Generated_Source\PSoC5/OverwriteISR.c **** *   Priority of the interrupt, 0 being the highest priority
 309:Generated_Source\PSoC5/OverwriteISR.c **** *    PSoC 3 and PSoC 5LP: Priority is from 0 to 7.
 310:Generated_Source\PSoC5/OverwriteISR.c **** *    PSoC 4: Priority is from 0 to 3.
 311:Generated_Source\PSoC5/OverwriteISR.c **** *
 312:Generated_Source\PSoC5/OverwriteISR.c **** *******************************************************************************/
 313:Generated_Source\PSoC5/OverwriteISR.c **** uint8 OverwriteISR_GetPriority(void)
 314:Generated_Source\PSoC5/OverwriteISR.c **** {
 244              		.loc 1 314 0
 245              		.cfi_startproc
 246              		@ args = 0, pretend = 0, frame = 0
 247              		@ frame_needed = 0, uses_anonymous_args = 0
 248              		@ link register save eliminated.
 315:Generated_Source\PSoC5/OverwriteISR.c ****     uint8 priority;
 316:Generated_Source\PSoC5/OverwriteISR.c **** 
 317:Generated_Source\PSoC5/OverwriteISR.c **** 
 318:Generated_Source\PSoC5/OverwriteISR.c ****     priority = *OverwriteISR_INTC_PRIOR >> 5;
 249              		.loc 1 318 0
 250 0000 014B     		ldr	r3, .L16
 251 0002 1878     		ldrb	r0, [r3]	@ zero_extendqisi2
 252              	.LVL24:
ARM GAS  C:\Users\chascha\AppData\Local\Temp\ccca7Ey9.s 			page 11


 319:Generated_Source\PSoC5/OverwriteISR.c **** 
 320:Generated_Source\PSoC5/OverwriteISR.c ****     return priority;
 321:Generated_Source\PSoC5/OverwriteISR.c **** }
 253              		.loc 1 321 0
 254 0004 4009     		lsrs	r0, r0, #5
 255              	.LVL25:
 256 0006 7047     		bx	lr
 257              	.L17:
 258              		.align	2
 259              	.L16:
 260 0008 06E400E0 		.word	-536812538
 261              		.cfi_endproc
 262              	.LFE8:
 263              		.size	OverwriteISR_GetPriority, .-OverwriteISR_GetPriority
 264              		.section	.text.OverwriteISR_Enable,"ax",%progbits
 265              		.align	2
 266              		.global	OverwriteISR_Enable
 267              		.thumb
 268              		.thumb_func
 269              		.type	OverwriteISR_Enable, %function
 270              	OverwriteISR_Enable:
 271              	.LFB9:
 322:Generated_Source\PSoC5/OverwriteISR.c **** 
 323:Generated_Source\PSoC5/OverwriteISR.c **** 
 324:Generated_Source\PSoC5/OverwriteISR.c **** /*******************************************************************************
 325:Generated_Source\PSoC5/OverwriteISR.c **** * Function Name: OverwriteISR_Enable
 326:Generated_Source\PSoC5/OverwriteISR.c **** ********************************************************************************
 327:Generated_Source\PSoC5/OverwriteISR.c **** *
 328:Generated_Source\PSoC5/OverwriteISR.c **** * Summary:
 329:Generated_Source\PSoC5/OverwriteISR.c **** *   Enables the interrupt to the interrupt controller. Do not call this function
 330:Generated_Source\PSoC5/OverwriteISR.c **** *   unless ISR_Start() has been called or the functionality of the ISR_Start() 
 331:Generated_Source\PSoC5/OverwriteISR.c **** *   function, which sets the vector and the priority, has been called.
 332:Generated_Source\PSoC5/OverwriteISR.c **** *
 333:Generated_Source\PSoC5/OverwriteISR.c **** * Parameters:
 334:Generated_Source\PSoC5/OverwriteISR.c **** *   None
 335:Generated_Source\PSoC5/OverwriteISR.c **** *
 336:Generated_Source\PSoC5/OverwriteISR.c **** * Return:
 337:Generated_Source\PSoC5/OverwriteISR.c **** *   None
 338:Generated_Source\PSoC5/OverwriteISR.c **** *
 339:Generated_Source\PSoC5/OverwriteISR.c **** *******************************************************************************/
 340:Generated_Source\PSoC5/OverwriteISR.c **** void OverwriteISR_Enable(void)
 341:Generated_Source\PSoC5/OverwriteISR.c **** {
 272              		.loc 1 341 0
 273              		.cfi_startproc
 274              		@ args = 0, pretend = 0, frame = 0
 275              		@ frame_needed = 0, uses_anonymous_args = 0
 276              		@ link register save eliminated.
 342:Generated_Source\PSoC5/OverwriteISR.c ****     /* Enable the general interrupt. */
 343:Generated_Source\PSoC5/OverwriteISR.c ****     *OverwriteISR_INTC_SET_EN = OverwriteISR__INTC_MASK;
 277              		.loc 1 343 0
 278 0000 4022     		movs	r2, #64
 279 0002 014B     		ldr	r3, .L19
 280 0004 1A60     		str	r2, [r3]
 281 0006 7047     		bx	lr
 282              	.L20:
 283              		.align	2
 284              	.L19:
ARM GAS  C:\Users\chascha\AppData\Local\Temp\ccca7Ey9.s 			page 12


 285 0008 00E100E0 		.word	-536813312
 286              		.cfi_endproc
 287              	.LFE9:
 288              		.size	OverwriteISR_Enable, .-OverwriteISR_Enable
 289              		.section	.text.OverwriteISR_GetState,"ax",%progbits
 290              		.align	2
 291              		.global	OverwriteISR_GetState
 292              		.thumb
 293              		.thumb_func
 294              		.type	OverwriteISR_GetState, %function
 295              	OverwriteISR_GetState:
 296              	.LFB10:
 344:Generated_Source\PSoC5/OverwriteISR.c **** }
 345:Generated_Source\PSoC5/OverwriteISR.c **** 
 346:Generated_Source\PSoC5/OverwriteISR.c **** 
 347:Generated_Source\PSoC5/OverwriteISR.c **** /*******************************************************************************
 348:Generated_Source\PSoC5/OverwriteISR.c **** * Function Name: OverwriteISR_GetState
 349:Generated_Source\PSoC5/OverwriteISR.c **** ********************************************************************************
 350:Generated_Source\PSoC5/OverwriteISR.c **** *
 351:Generated_Source\PSoC5/OverwriteISR.c **** * Summary:
 352:Generated_Source\PSoC5/OverwriteISR.c **** *   Gets the state (enabled, disabled) of the Interrupt.
 353:Generated_Source\PSoC5/OverwriteISR.c **** *
 354:Generated_Source\PSoC5/OverwriteISR.c **** * Parameters:
 355:Generated_Source\PSoC5/OverwriteISR.c **** *   None
 356:Generated_Source\PSoC5/OverwriteISR.c **** *
 357:Generated_Source\PSoC5/OverwriteISR.c **** * Return:
 358:Generated_Source\PSoC5/OverwriteISR.c **** *   1 if enabled, 0 if disabled.
 359:Generated_Source\PSoC5/OverwriteISR.c **** *
 360:Generated_Source\PSoC5/OverwriteISR.c **** *******************************************************************************/
 361:Generated_Source\PSoC5/OverwriteISR.c **** uint8 OverwriteISR_GetState(void)
 362:Generated_Source\PSoC5/OverwriteISR.c **** {
 297              		.loc 1 362 0
 298              		.cfi_startproc
 299              		@ args = 0, pretend = 0, frame = 0
 300              		@ frame_needed = 0, uses_anonymous_args = 0
 301              		@ link register save eliminated.
 363:Generated_Source\PSoC5/OverwriteISR.c ****     /* Get the state of the general interrupt. */
 364:Generated_Source\PSoC5/OverwriteISR.c ****     return ((*OverwriteISR_INTC_SET_EN & (uint32)OverwriteISR__INTC_MASK) != 0u) ? 1u:0u;
 302              		.loc 1 364 0
 303 0000 044B     		ldr	r3, .L24
 304 0002 1B68     		ldr	r3, [r3]
 305 0004 13F0400F 		tst	r3, #64
 306 0008 01D0     		beq	.L23
 307 000a 0120     		movs	r0, #1
 308 000c 7047     		bx	lr
 309              	.L23:
 310 000e 0020     		movs	r0, #0
 365:Generated_Source\PSoC5/OverwriteISR.c **** }
 311              		.loc 1 365 0
 312 0010 7047     		bx	lr
 313              	.L25:
 314 0012 00BF     		.align	2
 315              	.L24:
 316 0014 00E100E0 		.word	-536813312
 317              		.cfi_endproc
 318              	.LFE10:
 319              		.size	OverwriteISR_GetState, .-OverwriteISR_GetState
ARM GAS  C:\Users\chascha\AppData\Local\Temp\ccca7Ey9.s 			page 13


 320              		.section	.text.OverwriteISR_Disable,"ax",%progbits
 321              		.align	2
 322              		.global	OverwriteISR_Disable
 323              		.thumb
 324              		.thumb_func
 325              		.type	OverwriteISR_Disable, %function
 326              	OverwriteISR_Disable:
 327              	.LFB11:
 366:Generated_Source\PSoC5/OverwriteISR.c **** 
 367:Generated_Source\PSoC5/OverwriteISR.c **** 
 368:Generated_Source\PSoC5/OverwriteISR.c **** /*******************************************************************************
 369:Generated_Source\PSoC5/OverwriteISR.c **** * Function Name: OverwriteISR_Disable
 370:Generated_Source\PSoC5/OverwriteISR.c **** ********************************************************************************
 371:Generated_Source\PSoC5/OverwriteISR.c **** *
 372:Generated_Source\PSoC5/OverwriteISR.c **** * Summary:
 373:Generated_Source\PSoC5/OverwriteISR.c **** *   Disables the Interrupt in the interrupt controller.
 374:Generated_Source\PSoC5/OverwriteISR.c **** *
 375:Generated_Source\PSoC5/OverwriteISR.c **** * Parameters:
 376:Generated_Source\PSoC5/OverwriteISR.c **** *   None
 377:Generated_Source\PSoC5/OverwriteISR.c **** *
 378:Generated_Source\PSoC5/OverwriteISR.c **** * Return:
 379:Generated_Source\PSoC5/OverwriteISR.c **** *   None
 380:Generated_Source\PSoC5/OverwriteISR.c **** *
 381:Generated_Source\PSoC5/OverwriteISR.c **** *******************************************************************************/
 382:Generated_Source\PSoC5/OverwriteISR.c **** void OverwriteISR_Disable(void)
 383:Generated_Source\PSoC5/OverwriteISR.c **** {
 328              		.loc 1 383 0
 329              		.cfi_startproc
 330              		@ args = 0, pretend = 0, frame = 0
 331              		@ frame_needed = 0, uses_anonymous_args = 0
 332              		@ link register save eliminated.
 384:Generated_Source\PSoC5/OverwriteISR.c ****     /* Disable the general interrupt. */
 385:Generated_Source\PSoC5/OverwriteISR.c ****     *OverwriteISR_INTC_CLR_EN = OverwriteISR__INTC_MASK;
 333              		.loc 1 385 0
 334 0000 4022     		movs	r2, #64
 335 0002 014B     		ldr	r3, .L27
 336 0004 1A60     		str	r2, [r3]
 337 0006 7047     		bx	lr
 338              	.L28:
 339              		.align	2
 340              	.L27:
 341 0008 80E100E0 		.word	-536813184
 342              		.cfi_endproc
 343              	.LFE11:
 344              		.size	OverwriteISR_Disable, .-OverwriteISR_Disable
 345              		.section	.text.OverwriteISR_Start,"ax",%progbits
 346              		.align	2
 347              		.global	OverwriteISR_Start
 348              		.thumb
 349              		.thumb_func
 350              		.type	OverwriteISR_Start, %function
 351              	OverwriteISR_Start:
 352              	.LFB1:
  70:Generated_Source\PSoC5/OverwriteISR.c ****     /* For all we know the interrupt is active. */
 353              		.loc 1 70 0
 354              		.cfi_startproc
 355              		@ args = 0, pretend = 0, frame = 0
ARM GAS  C:\Users\chascha\AppData\Local\Temp\ccca7Ey9.s 			page 14


 356              		@ frame_needed = 0, uses_anonymous_args = 0
 357 0000 08B5     		push	{r3, lr}
 358              		.cfi_def_cfa_offset 8
 359              		.cfi_offset 3, -8
 360              		.cfi_offset 14, -4
  72:Generated_Source\PSoC5/OverwriteISR.c **** 
 361              		.loc 1 72 0
 362 0002 FFF7FEFF 		bl	OverwriteISR_Disable
 363              	.LVL26:
  75:Generated_Source\PSoC5/OverwriteISR.c **** 
 364              		.loc 1 75 0
 365 0006 0448     		ldr	r0, .L31
 366 0008 FFF7FEFF 		bl	OverwriteISR_SetVector
 367              	.LVL27:
  78:Generated_Source\PSoC5/OverwriteISR.c **** 
 368              		.loc 1 78 0
 369 000c 0720     		movs	r0, #7
 370 000e FFF7FEFF 		bl	OverwriteISR_SetPriority
 371              	.LVL28:
  81:Generated_Source\PSoC5/OverwriteISR.c **** }
 372              		.loc 1 81 0
 373 0012 FFF7FEFF 		bl	OverwriteISR_Enable
 374              	.LVL29:
 375 0016 08BD     		pop	{r3, pc}
 376              	.L32:
 377              		.align	2
 378              	.L31:
 379 0018 00000000 		.word	OverwriteISR_Interrupt
 380              		.cfi_endproc
 381              	.LFE1:
 382              		.size	OverwriteISR_Start, .-OverwriteISR_Start
 383              		.section	.text.OverwriteISR_StartEx,"ax",%progbits
 384              		.align	2
 385              		.global	OverwriteISR_StartEx
 386              		.thumb
 387              		.thumb_func
 388              		.type	OverwriteISR_StartEx, %function
 389              	OverwriteISR_StartEx:
 390              	.LFB2:
 113:Generated_Source\PSoC5/OverwriteISR.c ****     /* For all we know the interrupt is active. */
 391              		.loc 1 113 0
 392              		.cfi_startproc
 393              		@ args = 0, pretend = 0, frame = 0
 394              		@ frame_needed = 0, uses_anonymous_args = 0
 395              	.LVL30:
 396 0000 10B5     		push	{r4, lr}
 397              		.cfi_def_cfa_offset 8
 398              		.cfi_offset 4, -8
 399              		.cfi_offset 14, -4
 400 0002 0446     		mov	r4, r0
 115:Generated_Source\PSoC5/OverwriteISR.c **** 
 401              		.loc 1 115 0
 402 0004 FFF7FEFF 		bl	OverwriteISR_Disable
 403              	.LVL31:
 118:Generated_Source\PSoC5/OverwriteISR.c **** 
 404              		.loc 1 118 0
 405 0008 2046     		mov	r0, r4
ARM GAS  C:\Users\chascha\AppData\Local\Temp\ccca7Ey9.s 			page 15


 406 000a FFF7FEFF 		bl	OverwriteISR_SetVector
 407              	.LVL32:
 121:Generated_Source\PSoC5/OverwriteISR.c **** 
 408              		.loc 1 121 0
 409 000e 0720     		movs	r0, #7
 410 0010 FFF7FEFF 		bl	OverwriteISR_SetPriority
 411              	.LVL33:
 124:Generated_Source\PSoC5/OverwriteISR.c **** }
 412              		.loc 1 124 0
 413 0014 FFF7FEFF 		bl	OverwriteISR_Enable
 414              	.LVL34:
 415 0018 10BD     		pop	{r4, pc}
 416              		.cfi_endproc
 417              	.LFE2:
 418              		.size	OverwriteISR_StartEx, .-OverwriteISR_StartEx
 419 001a 00BF     		.section	.text.OverwriteISR_Stop,"ax",%progbits
 420              		.align	2
 421              		.global	OverwriteISR_Stop
 422              		.thumb
 423              		.thumb_func
 424              		.type	OverwriteISR_Stop, %function
 425              	OverwriteISR_Stop:
 426              	.LFB3:
 143:Generated_Source\PSoC5/OverwriteISR.c ****     /* Disable this interrupt. */
 427              		.loc 1 143 0
 428              		.cfi_startproc
 429              		@ args = 0, pretend = 0, frame = 0
 430              		@ frame_needed = 0, uses_anonymous_args = 0
 431 0000 08B5     		push	{r3, lr}
 432              		.cfi_def_cfa_offset 8
 433              		.cfi_offset 3, -8
 434              		.cfi_offset 14, -4
 145:Generated_Source\PSoC5/OverwriteISR.c **** 
 435              		.loc 1 145 0
 436 0002 FFF7FEFF 		bl	OverwriteISR_Disable
 437              	.LVL35:
 148:Generated_Source\PSoC5/OverwriteISR.c **** }
 438              		.loc 1 148 0
 439 0006 0248     		ldr	r0, .L37
 440 0008 FFF7FEFF 		bl	OverwriteISR_SetVector
 441              	.LVL36:
 442 000c 08BD     		pop	{r3, pc}
 443              	.L38:
 444 000e 00BF     		.align	2
 445              	.L37:
 446 0010 00000000 		.word	IntDefaultHandler
 447              		.cfi_endproc
 448              	.LFE3:
 449              		.size	OverwriteISR_Stop, .-OverwriteISR_Stop
 450              		.section	.text.OverwriteISR_SetPending,"ax",%progbits
 451              		.align	2
 452              		.global	OverwriteISR_SetPending
 453              		.thumb
 454              		.thumb_func
 455              		.type	OverwriteISR_SetPending, %function
 456              	OverwriteISR_SetPending:
 457              	.LFB12:
ARM GAS  C:\Users\chascha\AppData\Local\Temp\ccca7Ey9.s 			page 16


 386:Generated_Source\PSoC5/OverwriteISR.c **** }
 387:Generated_Source\PSoC5/OverwriteISR.c **** 
 388:Generated_Source\PSoC5/OverwriteISR.c **** 
 389:Generated_Source\PSoC5/OverwriteISR.c **** /*******************************************************************************
 390:Generated_Source\PSoC5/OverwriteISR.c **** * Function Name: OverwriteISR_SetPending
 391:Generated_Source\PSoC5/OverwriteISR.c **** ********************************************************************************
 392:Generated_Source\PSoC5/OverwriteISR.c **** *
 393:Generated_Source\PSoC5/OverwriteISR.c **** * Summary:
 394:Generated_Source\PSoC5/OverwriteISR.c **** *   Causes the Interrupt to enter the pending state, a software method of
 395:Generated_Source\PSoC5/OverwriteISR.c **** *   generating the interrupt.
 396:Generated_Source\PSoC5/OverwriteISR.c **** *
 397:Generated_Source\PSoC5/OverwriteISR.c **** * Parameters:
 398:Generated_Source\PSoC5/OverwriteISR.c **** *   None
 399:Generated_Source\PSoC5/OverwriteISR.c **** *
 400:Generated_Source\PSoC5/OverwriteISR.c **** * Return:
 401:Generated_Source\PSoC5/OverwriteISR.c **** *   None
 402:Generated_Source\PSoC5/OverwriteISR.c **** *
 403:Generated_Source\PSoC5/OverwriteISR.c **** * Side Effects:
 404:Generated_Source\PSoC5/OverwriteISR.c **** *   If interrupts are enabled and the interrupt is set up properly, the ISR is
 405:Generated_Source\PSoC5/OverwriteISR.c **** *   entered (depending on the priority of this interrupt and other pending 
 406:Generated_Source\PSoC5/OverwriteISR.c **** *   interrupts).
 407:Generated_Source\PSoC5/OverwriteISR.c **** *
 408:Generated_Source\PSoC5/OverwriteISR.c **** *******************************************************************************/
 409:Generated_Source\PSoC5/OverwriteISR.c **** void OverwriteISR_SetPending(void)
 410:Generated_Source\PSoC5/OverwriteISR.c **** {
 458              		.loc 1 410 0
 459              		.cfi_startproc
 460              		@ args = 0, pretend = 0, frame = 0
 461              		@ frame_needed = 0, uses_anonymous_args = 0
 462              		@ link register save eliminated.
 411:Generated_Source\PSoC5/OverwriteISR.c ****     *OverwriteISR_INTC_SET_PD = OverwriteISR__INTC_MASK;
 463              		.loc 1 411 0
 464 0000 4022     		movs	r2, #64
 465 0002 014B     		ldr	r3, .L40
 466 0004 1A60     		str	r2, [r3]
 467 0006 7047     		bx	lr
 468              	.L41:
 469              		.align	2
 470              	.L40:
 471 0008 00E200E0 		.word	-536813056
 472              		.cfi_endproc
 473              	.LFE12:
 474              		.size	OverwriteISR_SetPending, .-OverwriteISR_SetPending
 475              		.section	.text.OverwriteISR_ClearPending,"ax",%progbits
 476              		.align	2
 477              		.global	OverwriteISR_ClearPending
 478              		.thumb
 479              		.thumb_func
 480              		.type	OverwriteISR_ClearPending, %function
 481              	OverwriteISR_ClearPending:
 482              	.LFB13:
 412:Generated_Source\PSoC5/OverwriteISR.c **** }
 413:Generated_Source\PSoC5/OverwriteISR.c **** 
 414:Generated_Source\PSoC5/OverwriteISR.c **** 
 415:Generated_Source\PSoC5/OverwriteISR.c **** /*******************************************************************************
 416:Generated_Source\PSoC5/OverwriteISR.c **** * Function Name: OverwriteISR_ClearPending
 417:Generated_Source\PSoC5/OverwriteISR.c **** ********************************************************************************
ARM GAS  C:\Users\chascha\AppData\Local\Temp\ccca7Ey9.s 			page 17


 418:Generated_Source\PSoC5/OverwriteISR.c **** *
 419:Generated_Source\PSoC5/OverwriteISR.c **** * Summary:
 420:Generated_Source\PSoC5/OverwriteISR.c **** *   Clears a pending interrupt in the interrupt controller.
 421:Generated_Source\PSoC5/OverwriteISR.c **** *
 422:Generated_Source\PSoC5/OverwriteISR.c **** *   Note Some interrupt sources are clear-on-read and require the block 
 423:Generated_Source\PSoC5/OverwriteISR.c **** *   interrupt/status register to be read/cleared with the appropriate block API 
 424:Generated_Source\PSoC5/OverwriteISR.c **** *   (GPIO, UART, and so on). Otherwise the ISR will continue to remain in 
 425:Generated_Source\PSoC5/OverwriteISR.c **** *   pending state even though the interrupt itself is cleared using this API.
 426:Generated_Source\PSoC5/OverwriteISR.c **** *
 427:Generated_Source\PSoC5/OverwriteISR.c **** * Parameters:
 428:Generated_Source\PSoC5/OverwriteISR.c **** *   None
 429:Generated_Source\PSoC5/OverwriteISR.c **** *
 430:Generated_Source\PSoC5/OverwriteISR.c **** * Return:
 431:Generated_Source\PSoC5/OverwriteISR.c **** *   None
 432:Generated_Source\PSoC5/OverwriteISR.c **** *
 433:Generated_Source\PSoC5/OverwriteISR.c **** *******************************************************************************/
 434:Generated_Source\PSoC5/OverwriteISR.c **** void OverwriteISR_ClearPending(void)
 435:Generated_Source\PSoC5/OverwriteISR.c **** {
 483              		.loc 1 435 0
 484              		.cfi_startproc
 485              		@ args = 0, pretend = 0, frame = 0
 486              		@ frame_needed = 0, uses_anonymous_args = 0
 487              		@ link register save eliminated.
 436:Generated_Source\PSoC5/OverwriteISR.c ****     *OverwriteISR_INTC_CLR_PD = OverwriteISR__INTC_MASK;
 488              		.loc 1 436 0
 489 0000 4022     		movs	r2, #64
 490 0002 014B     		ldr	r3, .L43
 491 0004 1A60     		str	r2, [r3]
 492 0006 7047     		bx	lr
 493              	.L44:
 494              		.align	2
 495              	.L43:
 496 0008 80E200E0 		.word	-536812928
 497              		.cfi_endproc
 498              	.LFE13:
 499              		.size	OverwriteISR_ClearPending, .-OverwriteISR_ClearPending
 500              		.comm	mFlag,1,1
 501              		.comm	mPos,4,4
 502              		.comm	FPSID,1,1
 503              		.section	.rodata.str1.4,"aMS",%progbits,1
 504              		.align	2
 505              	.LC0:
 506 0000 49443A00 		.ascii	"ID:\000"
 507              	.LC1:
 508 0004 256400   		.ascii	"%d\000"
 509 0007 00       		.space	1
 510              	.LC2:
 511 0008 72506F73 		.ascii	"rPos:\000"
 511      3A00
 512 000e 0000     		.space	2
 513              	.LC3:
 514 0010 63506F73 		.ascii	"cPos:\000"
 514      3A00
 515              		.text
 516              	.Letext0:
 517              		.file 2 "Generated_Source\\PSoC5/cytypes.h"
 518              		.file 3 "Generated_Source\\PSoC5\\I2C.h"
ARM GAS  C:\Users\chascha\AppData\Local\Temp\ccca7Ey9.s 			page 18


 519              		.file 4 "Generated_Source\\PSoC5/CyLib.h"
 520              		.file 5 "Generated_Source\\PSoC5\\LCD_I2C_FUNCS.h"
 521              		.file 6 "c:\\program files (x86)\\cypress\\psoc creator\\4.2\\psoc creator\\import\\gnu\\arm\\5.4.