ARM GAS  C:\Users\chascha\AppData\Local\Temp\ccsfH0XI.s 			page 1


   1              		.syntax unified
   2              		.cpu cortex-m3
   3              		.fpu softvfp
   4              		.eabi_attribute 20, 1
   5              		.eabi_attribute 21, 1
   6              		.eabi_attribute 23, 3
   7              		.eabi_attribute 24, 1
   8              		.eabi_attribute 25, 1
   9              		.eabi_attribute 26, 1
  10              		.eabi_attribute 30, 1
  11              		.eabi_attribute 34, 1
  12              		.eabi_attribute 18, 4
  13              		.thumb
  14              		.syntax unified
  15              		.file	"UPDATE_ISR.c"
  16              		.text
  17              	.Ltext0:
  18              		.cfi_sections	.debug_frame
  19              		.section	.text.UPDATE_ISR_Interrupt,"ax",%progbits
  20              		.align	2
  21              		.global	UPDATE_ISR_Interrupt
  22              		.thumb
  23              		.thumb_func
  24              		.type	UPDATE_ISR_Interrupt, %function
  25              	UPDATE_ISR_Interrupt:
  26              	.LFB4:
  27              		.file 1 "Generated_Source\\PSoC5\\UPDATE_ISR.c"
   1:Generated_Source\PSoC5/UPDATE_ISR.c **** /*******************************************************************************
   2:Generated_Source\PSoC5/UPDATE_ISR.c **** * File Name: UPDATE_ISR.c  
   3:Generated_Source\PSoC5/UPDATE_ISR.c **** * Version 1.71
   4:Generated_Source\PSoC5/UPDATE_ISR.c **** *
   5:Generated_Source\PSoC5/UPDATE_ISR.c **** *  Description:
   6:Generated_Source\PSoC5/UPDATE_ISR.c **** *   API for controlling the state of an interrupt.
   7:Generated_Source\PSoC5/UPDATE_ISR.c **** *
   8:Generated_Source\PSoC5/UPDATE_ISR.c **** *
   9:Generated_Source\PSoC5/UPDATE_ISR.c **** *  Note:
  10:Generated_Source\PSoC5/UPDATE_ISR.c **** *
  11:Generated_Source\PSoC5/UPDATE_ISR.c **** ********************************************************************************
  12:Generated_Source\PSoC5/UPDATE_ISR.c **** * Copyright 2008-2015, Cypress Semiconductor Corporation.  All rights reserved.
  13:Generated_Source\PSoC5/UPDATE_ISR.c **** * You may use this file only in accordance with the license, terms, conditions, 
  14:Generated_Source\PSoC5/UPDATE_ISR.c **** * disclaimers, and limitations in the end user license agreement accompanying 
  15:Generated_Source\PSoC5/UPDATE_ISR.c **** * the software package with which this file was provided.
  16:Generated_Source\PSoC5/UPDATE_ISR.c **** *******************************************************************************/
  17:Generated_Source\PSoC5/UPDATE_ISR.c **** 
  18:Generated_Source\PSoC5/UPDATE_ISR.c **** 
  19:Generated_Source\PSoC5/UPDATE_ISR.c **** #include <cydevice_trm.h>
  20:Generated_Source\PSoC5/UPDATE_ISR.c **** #include <CyLib.h>
  21:Generated_Source\PSoC5/UPDATE_ISR.c **** #include <UPDATE_ISR.h>
  22:Generated_Source\PSoC5/UPDATE_ISR.c **** #include "cyapicallbacks.h"
  23:Generated_Source\PSoC5/UPDATE_ISR.c **** 
  24:Generated_Source\PSoC5/UPDATE_ISR.c **** #if !defined(UPDATE_ISR__REMOVED) /* Check for removal by optimization */
  25:Generated_Source\PSoC5/UPDATE_ISR.c **** 
  26:Generated_Source\PSoC5/UPDATE_ISR.c **** /*******************************************************************************
  27:Generated_Source\PSoC5/UPDATE_ISR.c **** *  Place your includes, defines and code here 
  28:Generated_Source\PSoC5/UPDATE_ISR.c **** ********************************************************************************/
  29:Generated_Source\PSoC5/UPDATE_ISR.c **** /* `#START UPDATE_ISR_intc` */
  30:Generated_Source\PSoC5/UPDATE_ISR.c ****     #include "I2C.h"
ARM GAS  C:\Users\chascha\AppData\Local\Temp\ccsfH0XI.s 			page 2


  31:Generated_Source\PSoC5/UPDATE_ISR.c ****     #include "stdio.h"
  32:Generated_Source\PSoC5/UPDATE_ISR.c ****     #include "LCD_I2C_FUNCS.h"
  33:Generated_Source\PSoC5/UPDATE_ISR.c ****     #include "UpdateTimer.h"
  34:Generated_Source\PSoC5/UPDATE_ISR.c ****     volatile unsigned int mPos;
  35:Generated_Source\PSoC5/UPDATE_ISR.c ****     volatile uint8 FPSmPos;
  36:Generated_Source\PSoC5/UPDATE_ISR.c ****     volatile uint8 FPSID;
  37:Generated_Source\PSoC5/UPDATE_ISR.c ****     volatile uint8 buttonID;
  38:Generated_Source\PSoC5/UPDATE_ISR.c ****     
  39:Generated_Source\PSoC5/UPDATE_ISR.c **** /* `#END` */
  40:Generated_Source\PSoC5/UPDATE_ISR.c **** 
  41:Generated_Source\PSoC5/UPDATE_ISR.c **** #ifndef CYINT_IRQ_BASE
  42:Generated_Source\PSoC5/UPDATE_ISR.c **** #define CYINT_IRQ_BASE      16
  43:Generated_Source\PSoC5/UPDATE_ISR.c **** #endif /* CYINT_IRQ_BASE */
  44:Generated_Source\PSoC5/UPDATE_ISR.c **** #ifndef CYINT_VECT_TABLE
  45:Generated_Source\PSoC5/UPDATE_ISR.c **** #define CYINT_VECT_TABLE    ((cyisraddress **) CYREG_NVIC_VECT_OFFSET)
  46:Generated_Source\PSoC5/UPDATE_ISR.c **** #endif /* CYINT_VECT_TABLE */
  47:Generated_Source\PSoC5/UPDATE_ISR.c **** 
  48:Generated_Source\PSoC5/UPDATE_ISR.c **** /* Declared in startup, used to set unused interrupts to. */
  49:Generated_Source\PSoC5/UPDATE_ISR.c **** CY_ISR_PROTO(IntDefaultHandler);
  50:Generated_Source\PSoC5/UPDATE_ISR.c **** 
  51:Generated_Source\PSoC5/UPDATE_ISR.c **** 
  52:Generated_Source\PSoC5/UPDATE_ISR.c **** /*******************************************************************************
  53:Generated_Source\PSoC5/UPDATE_ISR.c **** * Function Name: UPDATE_ISR_Start
  54:Generated_Source\PSoC5/UPDATE_ISR.c **** ********************************************************************************
  55:Generated_Source\PSoC5/UPDATE_ISR.c **** *
  56:Generated_Source\PSoC5/UPDATE_ISR.c **** * Summary:
  57:Generated_Source\PSoC5/UPDATE_ISR.c **** *  Set up the interrupt and enable it. This function disables the interrupt, 
  58:Generated_Source\PSoC5/UPDATE_ISR.c **** *  sets the default interrupt vector, sets the priority from the value in the
  59:Generated_Source\PSoC5/UPDATE_ISR.c **** *  Design Wide Resources Interrupt Editor, then enables the interrupt to the 
  60:Generated_Source\PSoC5/UPDATE_ISR.c **** *  interrupt controller.
  61:Generated_Source\PSoC5/UPDATE_ISR.c **** *
  62:Generated_Source\PSoC5/UPDATE_ISR.c **** * Parameters:  
  63:Generated_Source\PSoC5/UPDATE_ISR.c **** *   None
  64:Generated_Source\PSoC5/UPDATE_ISR.c **** *
  65:Generated_Source\PSoC5/UPDATE_ISR.c **** * Return:
  66:Generated_Source\PSoC5/UPDATE_ISR.c **** *   None
  67:Generated_Source\PSoC5/UPDATE_ISR.c **** *
  68:Generated_Source\PSoC5/UPDATE_ISR.c **** *******************************************************************************/
  69:Generated_Source\PSoC5/UPDATE_ISR.c **** void UPDATE_ISR_Start(void)
  70:Generated_Source\PSoC5/UPDATE_ISR.c **** {
  71:Generated_Source\PSoC5/UPDATE_ISR.c ****     /* For all we know the interrupt is active. */
  72:Generated_Source\PSoC5/UPDATE_ISR.c ****     UPDATE_ISR_Disable();
  73:Generated_Source\PSoC5/UPDATE_ISR.c **** 
  74:Generated_Source\PSoC5/UPDATE_ISR.c ****     /* Set the ISR to point to the UPDATE_ISR Interrupt. */
  75:Generated_Source\PSoC5/UPDATE_ISR.c ****     UPDATE_ISR_SetVector(&UPDATE_ISR_Interrupt);
  76:Generated_Source\PSoC5/UPDATE_ISR.c **** 
  77:Generated_Source\PSoC5/UPDATE_ISR.c ****     /* Set the priority. */
  78:Generated_Source\PSoC5/UPDATE_ISR.c ****     UPDATE_ISR_SetPriority((uint8)UPDATE_ISR_INTC_PRIOR_NUMBER);
  79:Generated_Source\PSoC5/UPDATE_ISR.c **** 
  80:Generated_Source\PSoC5/UPDATE_ISR.c ****     /* Enable it. */
  81:Generated_Source\PSoC5/UPDATE_ISR.c ****     UPDATE_ISR_Enable();
  82:Generated_Source\PSoC5/UPDATE_ISR.c **** }
  83:Generated_Source\PSoC5/UPDATE_ISR.c **** 
  84:Generated_Source\PSoC5/UPDATE_ISR.c **** 
  85:Generated_Source\PSoC5/UPDATE_ISR.c **** /*******************************************************************************
  86:Generated_Source\PSoC5/UPDATE_ISR.c **** * Function Name: UPDATE_ISR_StartEx
  87:Generated_Source\PSoC5/UPDATE_ISR.c **** ********************************************************************************
ARM GAS  C:\Users\chascha\AppData\Local\Temp\ccsfH0XI.s 			page 3


  88:Generated_Source\PSoC5/UPDATE_ISR.c **** *
  89:Generated_Source\PSoC5/UPDATE_ISR.c **** * Summary:
  90:Generated_Source\PSoC5/UPDATE_ISR.c **** *  Sets up the interrupt and enables it. This function disables the interrupt,
  91:Generated_Source\PSoC5/UPDATE_ISR.c **** *  sets the interrupt vector based on the address passed in, sets the priority 
  92:Generated_Source\PSoC5/UPDATE_ISR.c **** *  from the value in the Design Wide Resources Interrupt Editor, then enables 
  93:Generated_Source\PSoC5/UPDATE_ISR.c **** *  the interrupt to the interrupt controller.
  94:Generated_Source\PSoC5/UPDATE_ISR.c **** *  
  95:Generated_Source\PSoC5/UPDATE_ISR.c **** *  When defining ISR functions, the CY_ISR and CY_ISR_PROTO macros should be 
  96:Generated_Source\PSoC5/UPDATE_ISR.c **** *  used to provide consistent definition across compilers:
  97:Generated_Source\PSoC5/UPDATE_ISR.c **** *  
  98:Generated_Source\PSoC5/UPDATE_ISR.c **** *  Function definition example:
  99:Generated_Source\PSoC5/UPDATE_ISR.c **** *   CY_ISR(MyISR)
 100:Generated_Source\PSoC5/UPDATE_ISR.c **** *   {
 101:Generated_Source\PSoC5/UPDATE_ISR.c **** *   }
 102:Generated_Source\PSoC5/UPDATE_ISR.c **** *   Function prototype example:
 103:Generated_Source\PSoC5/UPDATE_ISR.c **** *   CY_ISR_PROTO(MyISR);
 104:Generated_Source\PSoC5/UPDATE_ISR.c **** *
 105:Generated_Source\PSoC5/UPDATE_ISR.c **** * Parameters:  
 106:Generated_Source\PSoC5/UPDATE_ISR.c **** *   address: Address of the ISR to set in the interrupt vector table.
 107:Generated_Source\PSoC5/UPDATE_ISR.c **** *
 108:Generated_Source\PSoC5/UPDATE_ISR.c **** * Return:
 109:Generated_Source\PSoC5/UPDATE_ISR.c **** *   None
 110:Generated_Source\PSoC5/UPDATE_ISR.c **** *
 111:Generated_Source\PSoC5/UPDATE_ISR.c **** *******************************************************************************/
 112:Generated_Source\PSoC5/UPDATE_ISR.c **** void UPDATE_ISR_StartEx(cyisraddress address)
 113:Generated_Source\PSoC5/UPDATE_ISR.c **** {
 114:Generated_Source\PSoC5/UPDATE_ISR.c ****     /* For all we know the interrupt is active. */
 115:Generated_Source\PSoC5/UPDATE_ISR.c ****     UPDATE_ISR_Disable();
 116:Generated_Source\PSoC5/UPDATE_ISR.c **** 
 117:Generated_Source\PSoC5/UPDATE_ISR.c ****     /* Set the ISR to point to the UPDATE_ISR Interrupt. */
 118:Generated_Source\PSoC5/UPDATE_ISR.c ****     UPDATE_ISR_SetVector(address);
 119:Generated_Source\PSoC5/UPDATE_ISR.c **** 
 120:Generated_Source\PSoC5/UPDATE_ISR.c ****     /* Set the priority. */
 121:Generated_Source\PSoC5/UPDATE_ISR.c ****     UPDATE_ISR_SetPriority((uint8)UPDATE_ISR_INTC_PRIOR_NUMBER);
 122:Generated_Source\PSoC5/UPDATE_ISR.c **** 
 123:Generated_Source\PSoC5/UPDATE_ISR.c ****     /* Enable it. */
 124:Generated_Source\PSoC5/UPDATE_ISR.c ****     UPDATE_ISR_Enable();
 125:Generated_Source\PSoC5/UPDATE_ISR.c **** }
 126:Generated_Source\PSoC5/UPDATE_ISR.c **** 
 127:Generated_Source\PSoC5/UPDATE_ISR.c **** 
 128:Generated_Source\PSoC5/UPDATE_ISR.c **** /*******************************************************************************
 129:Generated_Source\PSoC5/UPDATE_ISR.c **** * Function Name: UPDATE_ISR_Stop
 130:Generated_Source\PSoC5/UPDATE_ISR.c **** ********************************************************************************
 131:Generated_Source\PSoC5/UPDATE_ISR.c **** *
 132:Generated_Source\PSoC5/UPDATE_ISR.c **** * Summary:
 133:Generated_Source\PSoC5/UPDATE_ISR.c **** *   Disables and removes the interrupt.
 134:Generated_Source\PSoC5/UPDATE_ISR.c **** *
 135:Generated_Source\PSoC5/UPDATE_ISR.c **** * Parameters:  
 136:Generated_Source\PSoC5/UPDATE_ISR.c **** *   None
 137:Generated_Source\PSoC5/UPDATE_ISR.c **** *
 138:Generated_Source\PSoC5/UPDATE_ISR.c **** * Return:
 139:Generated_Source\PSoC5/UPDATE_ISR.c **** *   None
 140:Generated_Source\PSoC5/UPDATE_ISR.c **** *
 141:Generated_Source\PSoC5/UPDATE_ISR.c **** *******************************************************************************/
 142:Generated_Source\PSoC5/UPDATE_ISR.c **** void UPDATE_ISR_Stop(void)
 143:Generated_Source\PSoC5/UPDATE_ISR.c **** {
 144:Generated_Source\PSoC5/UPDATE_ISR.c ****     /* Disable this interrupt. */
ARM GAS  C:\Users\chascha\AppData\Local\Temp\ccsfH0XI.s 			page 4


 145:Generated_Source\PSoC5/UPDATE_ISR.c ****     UPDATE_ISR_Disable();
 146:Generated_Source\PSoC5/UPDATE_ISR.c **** 
 147:Generated_Source\PSoC5/UPDATE_ISR.c ****     /* Set the ISR to point to the passive one. */
 148:Generated_Source\PSoC5/UPDATE_ISR.c ****     UPDATE_ISR_SetVector(&IntDefaultHandler);
 149:Generated_Source\PSoC5/UPDATE_ISR.c **** }
 150:Generated_Source\PSoC5/UPDATE_ISR.c **** 
 151:Generated_Source\PSoC5/UPDATE_ISR.c **** 
 152:Generated_Source\PSoC5/UPDATE_ISR.c **** /*******************************************************************************
 153:Generated_Source\PSoC5/UPDATE_ISR.c **** * Function Name: UPDATE_ISR_Interrupt
 154:Generated_Source\PSoC5/UPDATE_ISR.c **** ********************************************************************************
 155:Generated_Source\PSoC5/UPDATE_ISR.c **** *
 156:Generated_Source\PSoC5/UPDATE_ISR.c **** * Summary:
 157:Generated_Source\PSoC5/UPDATE_ISR.c **** *   The default Interrupt Service Routine for UPDATE_ISR.
 158:Generated_Source\PSoC5/UPDATE_ISR.c **** *
 159:Generated_Source\PSoC5/UPDATE_ISR.c **** *   Add custom code between the coments to keep the next version of this file
 160:Generated_Source\PSoC5/UPDATE_ISR.c **** *   from over writting your code.
 161:Generated_Source\PSoC5/UPDATE_ISR.c **** *
 162:Generated_Source\PSoC5/UPDATE_ISR.c **** * Parameters:  
 163:Generated_Source\PSoC5/UPDATE_ISR.c **** *
 164:Generated_Source\PSoC5/UPDATE_ISR.c **** * Return:
 165:Generated_Source\PSoC5/UPDATE_ISR.c **** *   None
 166:Generated_Source\PSoC5/UPDATE_ISR.c **** *
 167:Generated_Source\PSoC5/UPDATE_ISR.c **** *******************************************************************************/
 168:Generated_Source\PSoC5/UPDATE_ISR.c **** CY_ISR(UPDATE_ISR_Interrupt)
 169:Generated_Source\PSoC5/UPDATE_ISR.c **** {
  28              		.loc 1 169 0
  29              		.cfi_startproc
  30              		@ args = 0, pretend = 0, frame = 16
  31              		@ frame_needed = 0, uses_anonymous_args = 0
  32 0000 10B5     		push	{r4, lr}
  33              		.cfi_def_cfa_offset 8
  34              		.cfi_offset 4, -8
  35              		.cfi_offset 14, -4
  36 0002 84B0     		sub	sp, sp, #16
  37              		.cfi_def_cfa_offset 24
 170:Generated_Source\PSoC5/UPDATE_ISR.c ****     #ifdef UPDATE_ISR_INTERRUPT_INTERRUPT_CALLBACK
 171:Generated_Source\PSoC5/UPDATE_ISR.c ****         UPDATE_ISR_Interrupt_InterruptCallback();
 172:Generated_Source\PSoC5/UPDATE_ISR.c ****     #endif /* UPDATE_ISR_INTERRUPT_INTERRUPT_CALLBACK */ 
 173:Generated_Source\PSoC5/UPDATE_ISR.c **** 
 174:Generated_Source\PSoC5/UPDATE_ISR.c ****     /*  Place your Interrupt code here. */
 175:Generated_Source\PSoC5/UPDATE_ISR.c ****     /* `#START UPDATE_ISR_Interrupt` */
 176:Generated_Source\PSoC5/UPDATE_ISR.c ****     CyDelay(2000);
  38              		.loc 1 176 0
  39 0004 4FF4FA60 		mov	r0, #2000
  40 0008 FFF7FEFF 		bl	CyDelay
  41              	.LVL0:
 177:Generated_Source\PSoC5/UPDATE_ISR.c ****     I2C_Start();
  42              		.loc 1 177 0
  43 000c FFF7FEFF 		bl	I2C_Start
  44              	.LVL1:
 178:Generated_Source\PSoC5/UPDATE_ISR.c ****     LCD_I2C_clear();
  45              		.loc 1 178 0
  46 0010 FFF7FEFF 		bl	LCD_I2C_clear
  47              	.LVL2:
 179:Generated_Source\PSoC5/UPDATE_ISR.c ****     LCD_I2C_setCursor(0,0);
  48              		.loc 1 179 0
  49 0014 0021     		movs	r1, #0
ARM GAS  C:\Users\chascha\AppData\Local\Temp\ccsfH0XI.s 			page 5


  50 0016 0846     		mov	r0, r1
  51 0018 FFF7FEFF 		bl	LCD_I2C_setCursor
  52              	.LVL3:
 180:Generated_Source\PSoC5/UPDATE_ISR.c ****     
 181:Generated_Source\PSoC5/UPDATE_ISR.c ****     char addr[1];
 182:Generated_Source\PSoC5/UPDATE_ISR.c ****     char mpos[1];
 183:Generated_Source\PSoC5/UPDATE_ISR.c ****     char cpos[1];
 184:Generated_Source\PSoC5/UPDATE_ISR.c ****     char bID[1];
 185:Generated_Source\PSoC5/UPDATE_ISR.c ****     
 186:Generated_Source\PSoC5/UPDATE_ISR.c ****     LCD_I2C_print("ID:");
  53              		.loc 1 186 0
  54 001c 2048     		ldr	r0, .L3
  55 001e FFF7FEFF 		bl	LCD_I2C_print
  56              	.LVL4:
 187:Generated_Source\PSoC5/UPDATE_ISR.c ****     sprintf(addr, "%d", FPSID);
  57              		.loc 1 187 0
  58 0022 204B     		ldr	r3, .L3+4
  59 0024 1A78     		ldrb	r2, [r3]	@ zero_extendqisi2
  60 0026 204C     		ldr	r4, .L3+8
  61 0028 2146     		mov	r1, r4
  62 002a 03A8     		add	r0, sp, #12
  63 002c FFF7FEFF 		bl	sprintf
  64              	.LVL5:
 188:Generated_Source\PSoC5/UPDATE_ISR.c ****     LCD_I2C_print(addr);
  65              		.loc 1 188 0
  66 0030 03A8     		add	r0, sp, #12
  67 0032 FFF7FEFF 		bl	LCD_I2C_print
  68              	.LVL6:
 189:Generated_Source\PSoC5/UPDATE_ISR.c ****     
 190:Generated_Source\PSoC5/UPDATE_ISR.c ****     LCD_I2C_setCursor(6,0);
  69              		.loc 1 190 0
  70 0036 0021     		movs	r1, #0
  71 0038 0620     		movs	r0, #6
  72 003a FFF7FEFF 		bl	LCD_I2C_setCursor
  73              	.LVL7:
 191:Generated_Source\PSoC5/UPDATE_ISR.c ****     LCD_I2C_print("rPos:");
  74              		.loc 1 191 0
  75 003e 1B48     		ldr	r0, .L3+12
  76 0040 FFF7FEFF 		bl	LCD_I2C_print
  77              	.LVL8:
 192:Generated_Source\PSoC5/UPDATE_ISR.c ****     sprintf(mpos, "%d", FPSmPos);
  78              		.loc 1 192 0
  79 0044 1A4B     		ldr	r3, .L3+16
  80 0046 1A78     		ldrb	r2, [r3]	@ zero_extendqisi2
  81 0048 2146     		mov	r1, r4
  82 004a 02A8     		add	r0, sp, #8
  83 004c FFF7FEFF 		bl	sprintf
  84              	.LVL9:
 193:Generated_Source\PSoC5/UPDATE_ISR.c ****     LCD_I2C_print(mpos);
  85              		.loc 1 193 0
  86 0050 02A8     		add	r0, sp, #8
  87 0052 FFF7FEFF 		bl	LCD_I2C_print
  88              	.LVL10:
 194:Generated_Source\PSoC5/UPDATE_ISR.c ****     
 195:Generated_Source\PSoC5/UPDATE_ISR.c ****     LCD_I2C_setCursor(0,1);
  89              		.loc 1 195 0
  90 0056 0121     		movs	r1, #1
ARM GAS  C:\Users\chascha\AppData\Local\Temp\ccsfH0XI.s 			page 6


  91 0058 0020     		movs	r0, #0
  92 005a FFF7FEFF 		bl	LCD_I2C_setCursor
  93              	.LVL11:
 196:Generated_Source\PSoC5/UPDATE_ISR.c ****     LCD_I2C_print("cPos:");
  94              		.loc 1 196 0
  95 005e 1548     		ldr	r0, .L3+20
  96 0060 FFF7FEFF 		bl	LCD_I2C_print
  97              	.LVL12:
 197:Generated_Source\PSoC5/UPDATE_ISR.c ****     sprintf(cpos, "%d", mPos);
  98              		.loc 1 197 0
  99 0064 144B     		ldr	r3, .L3+24
 100 0066 1A68     		ldr	r2, [r3]
 101 0068 2146     		mov	r1, r4
 102 006a 01A8     		add	r0, sp, #4
 103 006c FFF7FEFF 		bl	sprintf
 104              	.LVL13:
 198:Generated_Source\PSoC5/UPDATE_ISR.c ****     LCD_I2C_print(cpos);
 105              		.loc 1 198 0
 106 0070 01A8     		add	r0, sp, #4
 107 0072 FFF7FEFF 		bl	LCD_I2C_print
 108              	.LVL14:
 199:Generated_Source\PSoC5/UPDATE_ISR.c **** 
 200:Generated_Source\PSoC5/UPDATE_ISR.c ****     LCD_I2C_setCursor(9,1);
 109              		.loc 1 200 0
 110 0076 0121     		movs	r1, #1
 111 0078 0920     		movs	r0, #9
 112 007a FFF7FEFF 		bl	LCD_I2C_setCursor
 113              	.LVL15:
 201:Generated_Source\PSoC5/UPDATE_ISR.c ****     LCD_I2C_print("bID:");
 114              		.loc 1 201 0
 115 007e 0F48     		ldr	r0, .L3+28
 116 0080 FFF7FEFF 		bl	LCD_I2C_print
 117              	.LVL16:
 202:Generated_Source\PSoC5/UPDATE_ISR.c ****     sprintf(bID, "%d", buttonID);
 118              		.loc 1 202 0
 119 0084 0E4B     		ldr	r3, .L3+32
 120 0086 1A78     		ldrb	r2, [r3]	@ zero_extendqisi2
 121 0088 2146     		mov	r1, r4
 122 008a 6846     		mov	r0, sp
 123 008c FFF7FEFF 		bl	sprintf
 124              	.LVL17:
 203:Generated_Source\PSoC5/UPDATE_ISR.c ****     LCD_I2C_print(cpos);
 125              		.loc 1 203 0
 126 0090 01A8     		add	r0, sp, #4
 127 0092 FFF7FEFF 		bl	LCD_I2C_print
 128              	.LVL18:
 204:Generated_Source\PSoC5/UPDATE_ISR.c ****     
 205:Generated_Source\PSoC5/UPDATE_ISR.c ****     UpdateTimer_ReadStatusRegister();
 129              		.loc 1 205 0
 130 0096 FFF7FEFF 		bl	UpdateTimer_ReadStatusRegister
 131              	.LVL19:
 206:Generated_Source\PSoC5/UPDATE_ISR.c ****     /* `#END` */
 207:Generated_Source\PSoC5/UPDATE_ISR.c **** }
 132              		.loc 1 207 0
 133 009a 04B0     		add	sp, sp, #16
 134              		.cfi_def_cfa_offset 8
 135              		@ sp needed
ARM GAS  C:\Users\chascha\AppData\Local\Temp\ccsfH0XI.s 			page 7


 136 009c 10BD     		pop	{r4, pc}
 137              	.L4:
 138 009e 00BF     		.align	2
 139              	.L3:
 140 00a0 00000000 		.word	.LC0
 141 00a4 00000000 		.word	FPSID
 142 00a8 04000000 		.word	.LC1
 143 00ac 08000000 		.word	.LC2
 144 00b0 00000000 		.word	FPSmPos
 145 00b4 10000000 		.word	.LC3
 146 00b8 00000000 		.word	mPos
 147 00bc 18000000 		.word	.LC4
 148 00c0 00000000 		.word	buttonID
 149              		.cfi_endproc
 150              	.LFE4:
 151              		.size	UPDATE_ISR_Interrupt, .-UPDATE_ISR_Interrupt
 152              		.section	.text.UPDATE_ISR_SetVector,"ax",%progbits
 153              		.align	2
 154              		.global	UPDATE_ISR_SetVector
 155              		.thumb
 156              		.thumb_func
 157              		.type	UPDATE_ISR_SetVector, %function
 158              	UPDATE_ISR_SetVector:
 159              	.LFB5:
 208:Generated_Source\PSoC5/UPDATE_ISR.c **** 
 209:Generated_Source\PSoC5/UPDATE_ISR.c **** 
 210:Generated_Source\PSoC5/UPDATE_ISR.c **** /*******************************************************************************
 211:Generated_Source\PSoC5/UPDATE_ISR.c **** * Function Name: UPDATE_ISR_SetVector
 212:Generated_Source\PSoC5/UPDATE_ISR.c **** ********************************************************************************
 213:Generated_Source\PSoC5/UPDATE_ISR.c **** *
 214:Generated_Source\PSoC5/UPDATE_ISR.c **** * Summary:
 215:Generated_Source\PSoC5/UPDATE_ISR.c **** *   Change the ISR vector for the Interrupt. Note calling UPDATE_ISR_Start
 216:Generated_Source\PSoC5/UPDATE_ISR.c **** *   will override any effect this method would have had. To set the vector 
 217:Generated_Source\PSoC5/UPDATE_ISR.c **** *   before the component has been started use UPDATE_ISR_StartEx instead.
 218:Generated_Source\PSoC5/UPDATE_ISR.c **** * 
 219:Generated_Source\PSoC5/UPDATE_ISR.c **** *   When defining ISR functions, the CY_ISR and CY_ISR_PROTO macros should be 
 220:Generated_Source\PSoC5/UPDATE_ISR.c **** *   used to provide consistent definition across compilers:
 221:Generated_Source\PSoC5/UPDATE_ISR.c **** *
 222:Generated_Source\PSoC5/UPDATE_ISR.c **** *   Function definition example:
 223:Generated_Source\PSoC5/UPDATE_ISR.c **** *   CY_ISR(MyISR)
 224:Generated_Source\PSoC5/UPDATE_ISR.c **** *   {
 225:Generated_Source\PSoC5/UPDATE_ISR.c **** *   }
 226:Generated_Source\PSoC5/UPDATE_ISR.c **** *
 227:Generated_Source\PSoC5/UPDATE_ISR.c **** *   Function prototype example:
 228:Generated_Source\PSoC5/UPDATE_ISR.c **** *     CY_ISR_PROTO(MyISR);
 229:Generated_Source\PSoC5/UPDATE_ISR.c **** *
 230:Generated_Source\PSoC5/UPDATE_ISR.c **** * Parameters:
 231:Generated_Source\PSoC5/UPDATE_ISR.c **** *   address: Address of the ISR to set in the interrupt vector table.
 232:Generated_Source\PSoC5/UPDATE_ISR.c **** *
 233:Generated_Source\PSoC5/UPDATE_ISR.c **** * Return:
 234:Generated_Source\PSoC5/UPDATE_ISR.c **** *   None
 235:Generated_Source\PSoC5/UPDATE_ISR.c **** *
 236:Generated_Source\PSoC5/UPDATE_ISR.c **** *******************************************************************************/
 237:Generated_Source\PSoC5/UPDATE_ISR.c **** void UPDATE_ISR_SetVector(cyisraddress address)
 238:Generated_Source\PSoC5/UPDATE_ISR.c **** {
 160              		.loc 1 238 0
 161              		.cfi_startproc
ARM GAS  C:\Users\chascha\AppData\Local\Temp\ccsfH0XI.s 			page 8


 162              		@ args = 0, pretend = 0, frame = 0
 163              		@ frame_needed = 0, uses_anonymous_args = 0
 164              		@ link register save eliminated.
 165              	.LVL20:
 239:Generated_Source\PSoC5/UPDATE_ISR.c ****     cyisraddress * ramVectorTable;
 240:Generated_Source\PSoC5/UPDATE_ISR.c **** 
 241:Generated_Source\PSoC5/UPDATE_ISR.c ****     ramVectorTable = (cyisraddress *) *CYINT_VECT_TABLE;
 166              		.loc 1 241 0
 167 0000 024B     		ldr	r3, .L6
 168 0002 1B68     		ldr	r3, [r3]
 169              	.LVL21:
 242:Generated_Source\PSoC5/UPDATE_ISR.c **** 
 243:Generated_Source\PSoC5/UPDATE_ISR.c ****     ramVectorTable[CYINT_IRQ_BASE + (uint32)UPDATE_ISR__INTC_NUMBER] = address;
 170              		.loc 1 243 0
 171 0004 C3F88800 		str	r0, [r3, #136]
 172 0008 7047     		bx	lr
 173              	.L7:
 174 000a 00BF     		.align	2
 175              	.L6:
 176 000c 08ED00E0 		.word	-536810232
 177              		.cfi_endproc
 178              	.LFE5:
 179              		.size	UPDATE_ISR_SetVector, .-UPDATE_ISR_SetVector
 180              		.section	.text.UPDATE_ISR_GetVector,"ax",%progbits
 181              		.align	2
 182              		.global	UPDATE_ISR_GetVector
 183              		.thumb
 184              		.thumb_func
 185              		.type	UPDATE_ISR_GetVector, %function
 186              	UPDATE_ISR_GetVector:
 187              	.LFB6:
 244:Generated_Source\PSoC5/UPDATE_ISR.c **** }
 245:Generated_Source\PSoC5/UPDATE_ISR.c **** 
 246:Generated_Source\PSoC5/UPDATE_ISR.c **** 
 247:Generated_Source\PSoC5/UPDATE_ISR.c **** /*******************************************************************************
 248:Generated_Source\PSoC5/UPDATE_ISR.c **** * Function Name: UPDATE_ISR_GetVector
 249:Generated_Source\PSoC5/UPDATE_ISR.c **** ********************************************************************************
 250:Generated_Source\PSoC5/UPDATE_ISR.c **** *
 251:Generated_Source\PSoC5/UPDATE_ISR.c **** * Summary:
 252:Generated_Source\PSoC5/UPDATE_ISR.c **** *   Gets the "address" of the current ISR vector for the Interrupt.
 253:Generated_Source\PSoC5/UPDATE_ISR.c **** *
 254:Generated_Source\PSoC5/UPDATE_ISR.c **** * Parameters:
 255:Generated_Source\PSoC5/UPDATE_ISR.c **** *   None
 256:Generated_Source\PSoC5/UPDATE_ISR.c **** *
 257:Generated_Source\PSoC5/UPDATE_ISR.c **** * Return:
 258:Generated_Source\PSoC5/UPDATE_ISR.c **** *   Address of the ISR in the interrupt vector table.
 259:Generated_Source\PSoC5/UPDATE_ISR.c **** *
 260:Generated_Source\PSoC5/UPDATE_ISR.c **** *******************************************************************************/
 261:Generated_Source\PSoC5/UPDATE_ISR.c **** cyisraddress UPDATE_ISR_GetVector(void)
 262:Generated_Source\PSoC5/UPDATE_ISR.c **** {
 188              		.loc 1 262 0
 189              		.cfi_startproc
 190              		@ args = 0, pretend = 0, frame = 0
 191              		@ frame_needed = 0, uses_anonymous_args = 0
 192              		@ link register save eliminated.
 263:Generated_Source\PSoC5/UPDATE_ISR.c ****     cyisraddress * ramVectorTable;
 264:Generated_Source\PSoC5/UPDATE_ISR.c **** 
ARM GAS  C:\Users\chascha\AppData\Local\Temp\ccsfH0XI.s 			page 9


 265:Generated_Source\PSoC5/UPDATE_ISR.c ****     ramVectorTable = (cyisraddress *) *CYINT_VECT_TABLE;
 193              		.loc 1 265 0
 194 0000 024B     		ldr	r3, .L9
 195 0002 1B68     		ldr	r3, [r3]
 196              	.LVL22:
 266:Generated_Source\PSoC5/UPDATE_ISR.c **** 
 267:Generated_Source\PSoC5/UPDATE_ISR.c ****     return ramVectorTable[CYINT_IRQ_BASE + (uint32)UPDATE_ISR__INTC_NUMBER];
 268:Generated_Source\PSoC5/UPDATE_ISR.c **** }
 197              		.loc 1 268 0
 198 0004 D3F88800 		ldr	r0, [r3, #136]
 199 0008 7047     		bx	lr
 200              	.L10:
 201 000a 00BF     		.align	2
 202              	.L9:
 203 000c 08ED00E0 		.word	-536810232
 204              		.cfi_endproc
 205              	.LFE6:
 206              		.size	UPDATE_ISR_GetVector, .-UPDATE_ISR_GetVector
 207              		.section	.text.UPDATE_ISR_SetPriority,"ax",%progbits
 208              		.align	2
 209              		.global	UPDATE_ISR_SetPriority
 210              		.thumb
 211              		.thumb_func
 212              		.type	UPDATE_ISR_SetPriority, %function
 213              	UPDATE_ISR_SetPriority:
 214              	.LFB7:
 269:Generated_Source\PSoC5/UPDATE_ISR.c **** 
 270:Generated_Source\PSoC5/UPDATE_ISR.c **** 
 271:Generated_Source\PSoC5/UPDATE_ISR.c **** /*******************************************************************************
 272:Generated_Source\PSoC5/UPDATE_ISR.c **** * Function Name: UPDATE_ISR_SetPriority
 273:Generated_Source\PSoC5/UPDATE_ISR.c **** ********************************************************************************
 274:Generated_Source\PSoC5/UPDATE_ISR.c **** *
 275:Generated_Source\PSoC5/UPDATE_ISR.c **** * Summary:
 276:Generated_Source\PSoC5/UPDATE_ISR.c **** *   Sets the Priority of the Interrupt. 
 277:Generated_Source\PSoC5/UPDATE_ISR.c **** *
 278:Generated_Source\PSoC5/UPDATE_ISR.c **** *   Note calling UPDATE_ISR_Start or UPDATE_ISR_StartEx will 
 279:Generated_Source\PSoC5/UPDATE_ISR.c **** *   override any effect this API would have had. This API should only be called
 280:Generated_Source\PSoC5/UPDATE_ISR.c **** *   after UPDATE_ISR_Start or UPDATE_ISR_StartEx has been called. 
 281:Generated_Source\PSoC5/UPDATE_ISR.c **** *   To set the initial priority for the component, use the Design-Wide Resources
 282:Generated_Source\PSoC5/UPDATE_ISR.c **** *   Interrupt Editor.
 283:Generated_Source\PSoC5/UPDATE_ISR.c **** *
 284:Generated_Source\PSoC5/UPDATE_ISR.c **** *   Note This API has no effect on Non-maskable interrupt NMI).
 285:Generated_Source\PSoC5/UPDATE_ISR.c **** *
 286:Generated_Source\PSoC5/UPDATE_ISR.c **** * Parameters:
 287:Generated_Source\PSoC5/UPDATE_ISR.c **** *   priority: Priority of the interrupt, 0 being the highest priority
 288:Generated_Source\PSoC5/UPDATE_ISR.c **** *             PSoC 3 and PSoC 5LP: Priority is from 0 to 7.
 289:Generated_Source\PSoC5/UPDATE_ISR.c **** *             PSoC 4: Priority is from 0 to 3.
 290:Generated_Source\PSoC5/UPDATE_ISR.c **** *
 291:Generated_Source\PSoC5/UPDATE_ISR.c **** * Return:
 292:Generated_Source\PSoC5/UPDATE_ISR.c **** *   None
 293:Generated_Source\PSoC5/UPDATE_ISR.c **** *
 294:Generated_Source\PSoC5/UPDATE_ISR.c **** *******************************************************************************/
 295:Generated_Source\PSoC5/UPDATE_ISR.c **** void UPDATE_ISR_SetPriority(uint8 priority)
 296:Generated_Source\PSoC5/UPDATE_ISR.c **** {
 215              		.loc 1 296 0
 216              		.cfi_startproc
 217              		@ args = 0, pretend = 0, frame = 0
ARM GAS  C:\Users\chascha\AppData\Local\Temp\ccsfH0XI.s 			page 10


 218              		@ frame_needed = 0, uses_anonymous_args = 0
 219              		@ link register save eliminated.
 220              	.LVL23:
 297:Generated_Source\PSoC5/UPDATE_ISR.c ****     *UPDATE_ISR_INTC_PRIOR = priority << 5;
 221              		.loc 1 297 0
 222 0000 4001     		lsls	r0, r0, #5
 223              	.LVL24:
 224 0002 C0B2     		uxtb	r0, r0
 225 0004 014B     		ldr	r3, .L12
 226 0006 1870     		strb	r0, [r3]
 227 0008 7047     		bx	lr
 228              	.L13:
 229 000a 00BF     		.align	2
 230              	.L12:
 231 000c 12E400E0 		.word	-536812526
 232              		.cfi_endproc
 233              	.LFE7:
 234              		.size	UPDATE_ISR_SetPriority, .-UPDATE_ISR_SetPriority
 235              		.section	.text.UPDATE_ISR_GetPriority,"ax",%progbits
 236              		.align	2
 237              		.global	UPDATE_ISR_GetPriority
 238              		.thumb
 239              		.thumb_func
 240              		.type	UPDATE_ISR_GetPriority, %function
 241              	UPDATE_ISR_GetPriority:
 242              	.LFB8:
 298:Generated_Source\PSoC5/UPDATE_ISR.c **** }
 299:Generated_Source\PSoC5/UPDATE_ISR.c **** 
 300:Generated_Source\PSoC5/UPDATE_ISR.c **** 
 301:Generated_Source\PSoC5/UPDATE_ISR.c **** /*******************************************************************************
 302:Generated_Source\PSoC5/UPDATE_ISR.c **** * Function Name: UPDATE_ISR_GetPriority
 303:Generated_Source\PSoC5/UPDATE_ISR.c **** ********************************************************************************
 304:Generated_Source\PSoC5/UPDATE_ISR.c **** *
 305:Generated_Source\PSoC5/UPDATE_ISR.c **** * Summary:
 306:Generated_Source\PSoC5/UPDATE_ISR.c **** *   Gets the Priority of the Interrupt.
 307:Generated_Source\PSoC5/UPDATE_ISR.c **** *
 308:Generated_Source\PSoC5/UPDATE_ISR.c **** * Parameters:
 309:Generated_Source\PSoC5/UPDATE_ISR.c **** *   None
 310:Generated_Source\PSoC5/UPDATE_ISR.c **** *
 311:Generated_Source\PSoC5/UPDATE_ISR.c **** * Return:
 312:Generated_Source\PSoC5/UPDATE_ISR.c **** *   Priority of the interrupt, 0 being the highest priority
 313:Generated_Source\PSoC5/UPDATE_ISR.c **** *    PSoC 3 and PSoC 5LP: Priority is from 0 to 7.
 314:Generated_Source\PSoC5/UPDATE_ISR.c **** *    PSoC 4: Priority is from 0 to 3.
 315:Generated_Source\PSoC5/UPDATE_ISR.c **** *
 316:Generated_Source\PSoC5/UPDATE_ISR.c **** *******************************************************************************/
 317:Generated_Source\PSoC5/UPDATE_ISR.c **** uint8 UPDATE_ISR_GetPriority(void)
 318:Generated_Source\PSoC5/UPDATE_ISR.c **** {
 243              		.loc 1 318 0
 244              		.cfi_startproc
 245              		@ args = 0, pretend = 0, frame = 0
 246              		@ frame_needed = 0, uses_anonymous_args = 0
 247              		@ link register save eliminated.
 319:Generated_Source\PSoC5/UPDATE_ISR.c ****     uint8 priority;
 320:Generated_Source\PSoC5/UPDATE_ISR.c **** 
 321:Generated_Source\PSoC5/UPDATE_ISR.c **** 
 322:Generated_Source\PSoC5/UPDATE_ISR.c ****     priority = *UPDATE_ISR_INTC_PRIOR >> 5;
 248              		.loc 1 322 0
ARM GAS  C:\Users\chascha\AppData\Local\Temp\ccsfH0XI.s 			page 11


 249 0000 014B     		ldr	r3, .L15
 250 0002 1878     		ldrb	r0, [r3]	@ zero_extendqisi2
 251              	.LVL25:
 323:Generated_Source\PSoC5/UPDATE_ISR.c **** 
 324:Generated_Source\PSoC5/UPDATE_ISR.c ****     return priority;
 325:Generated_Source\PSoC5/UPDATE_ISR.c **** }
 252              		.loc 1 325 0
 253 0004 4009     		lsrs	r0, r0, #5
 254              	.LVL26:
 255 0006 7047     		bx	lr
 256              	.L16:
 257              		.align	2
 258              	.L15:
 259 0008 12E400E0 		.word	-536812526
 260              		.cfi_endproc
 261              	.LFE8:
 262              		.size	UPDATE_ISR_GetPriority, .-UPDATE_ISR_GetPriority
 263              		.section	.text.UPDATE_ISR_Enable,"ax",%progbits
 264              		.align	2
 265              		.global	UPDATE_ISR_Enable
 266              		.thumb
 267              		.thumb_func
 268              		.type	UPDATE_ISR_Enable, %function
 269              	UPDATE_ISR_Enable:
 270              	.LFB9:
 326:Generated_Source\PSoC5/UPDATE_ISR.c **** 
 327:Generated_Source\PSoC5/UPDATE_ISR.c **** 
 328:Generated_Source\PSoC5/UPDATE_ISR.c **** /*******************************************************************************
 329:Generated_Source\PSoC5/UPDATE_ISR.c **** * Function Name: UPDATE_ISR_Enable
 330:Generated_Source\PSoC5/UPDATE_ISR.c **** ********************************************************************************
 331:Generated_Source\PSoC5/UPDATE_ISR.c **** *
 332:Generated_Source\PSoC5/UPDATE_ISR.c **** * Summary:
 333:Generated_Source\PSoC5/UPDATE_ISR.c **** *   Enables the interrupt to the interrupt controller. Do not call this function
 334:Generated_Source\PSoC5/UPDATE_ISR.c **** *   unless ISR_Start() has been called or the functionality of the ISR_Start() 
 335:Generated_Source\PSoC5/UPDATE_ISR.c **** *   function, which sets the vector and the priority, has been called.
 336:Generated_Source\PSoC5/UPDATE_ISR.c **** *
 337:Generated_Source\PSoC5/UPDATE_ISR.c **** * Parameters:
 338:Generated_Source\PSoC5/UPDATE_ISR.c **** *   None
 339:Generated_Source\PSoC5/UPDATE_ISR.c **** *
 340:Generated_Source\PSoC5/UPDATE_ISR.c **** * Return:
 341:Generated_Source\PSoC5/UPDATE_ISR.c **** *   None
 342:Generated_Source\PSoC5/UPDATE_ISR.c **** *
 343:Generated_Source\PSoC5/UPDATE_ISR.c **** *******************************************************************************/
 344:Generated_Source\PSoC5/UPDATE_ISR.c **** void UPDATE_ISR_Enable(void)
 345:Generated_Source\PSoC5/UPDATE_ISR.c **** {
 271              		.loc 1 345 0
 272              		.cfi_startproc
 273              		@ args = 0, pretend = 0, frame = 0
 274              		@ frame_needed = 0, uses_anonymous_args = 0
 275              		@ link register save eliminated.
 346:Generated_Source\PSoC5/UPDATE_ISR.c ****     /* Enable the general interrupt. */
 347:Generated_Source\PSoC5/UPDATE_ISR.c ****     *UPDATE_ISR_INTC_SET_EN = UPDATE_ISR__INTC_MASK;
 276              		.loc 1 347 0
 277 0000 4FF48022 		mov	r2, #262144
 278 0004 014B     		ldr	r3, .L18
 279 0006 1A60     		str	r2, [r3]
 280 0008 7047     		bx	lr
ARM GAS  C:\Users\chascha\AppData\Local\Temp\ccsfH0XI.s 			page 12


 281              	.L19:
 282 000a 00BF     		.align	2
 283              	.L18:
 284 000c 00E100E0 		.word	-536813312
 285              		.cfi_endproc
 286              	.LFE9:
 287              		.size	UPDATE_ISR_Enable, .-UPDATE_ISR_Enable
 288              		.section	.text.UPDATE_ISR_GetState,"ax",%progbits
 289              		.align	2
 290              		.global	UPDATE_ISR_GetState
 291              		.thumb
 292              		.thumb_func
 293              		.type	UPDATE_ISR_GetState, %function
 294              	UPDATE_ISR_GetState:
 295              	.LFB10:
 348:Generated_Source\PSoC5/UPDATE_ISR.c **** }
 349:Generated_Source\PSoC5/UPDATE_ISR.c **** 
 350:Generated_Source\PSoC5/UPDATE_ISR.c **** 
 351:Generated_Source\PSoC5/UPDATE_ISR.c **** /*******************************************************************************
 352:Generated_Source\PSoC5/UPDATE_ISR.c **** * Function Name: UPDATE_ISR_GetState
 353:Generated_Source\PSoC5/UPDATE_ISR.c **** ********************************************************************************
 354:Generated_Source\PSoC5/UPDATE_ISR.c **** *
 355:Generated_Source\PSoC5/UPDATE_ISR.c **** * Summary:
 356:Generated_Source\PSoC5/UPDATE_ISR.c **** *   Gets the state (enabled, disabled) of the Interrupt.
 357:Generated_Source\PSoC5/UPDATE_ISR.c **** *
 358:Generated_Source\PSoC5/UPDATE_ISR.c **** * Parameters:
 359:Generated_Source\PSoC5/UPDATE_ISR.c **** *   None
 360:Generated_Source\PSoC5/UPDATE_ISR.c **** *
 361:Generated_Source\PSoC5/UPDATE_ISR.c **** * Return:
 362:Generated_Source\PSoC5/UPDATE_ISR.c **** *   1 if enabled, 0 if disabled.
 363:Generated_Source\PSoC5/UPDATE_ISR.c **** *
 364:Generated_Source\PSoC5/UPDATE_ISR.c **** *******************************************************************************/
 365:Generated_Source\PSoC5/UPDATE_ISR.c **** uint8 UPDATE_ISR_GetState(void)
 366:Generated_Source\PSoC5/UPDATE_ISR.c **** {
 296              		.loc 1 366 0
 297              		.cfi_startproc
 298              		@ args = 0, pretend = 0, frame = 0
 299              		@ frame_needed = 0, uses_anonymous_args = 0
 300              		@ link register save eliminated.
 367:Generated_Source\PSoC5/UPDATE_ISR.c ****     /* Get the state of the general interrupt. */
 368:Generated_Source\PSoC5/UPDATE_ISR.c ****     return ((*UPDATE_ISR_INTC_SET_EN & (uint32)UPDATE_ISR__INTC_MASK) != 0u) ? 1u:0u;
 301              		.loc 1 368 0
 302 0000 044B     		ldr	r3, .L23
 303 0002 1B68     		ldr	r3, [r3]
 304 0004 13F4802F 		tst	r3, #262144
 305 0008 01D0     		beq	.L22
 306 000a 0120     		movs	r0, #1
 307 000c 7047     		bx	lr
 308              	.L22:
 309 000e 0020     		movs	r0, #0
 369:Generated_Source\PSoC5/UPDATE_ISR.c **** }
 310              		.loc 1 369 0
 311 0010 7047     		bx	lr
 312              	.L24:
 313 0012 00BF     		.align	2
 314              	.L23:
 315 0014 00E100E0 		.word	-536813312
ARM GAS  C:\Users\chascha\AppData\Local\Temp\ccsfH0XI.s 			page 13


 316              		.cfi_endproc
 317              	.LFE10:
 318              		.size	UPDATE_ISR_GetState, .-UPDATE_ISR_GetState
 319              		.section	.text.UPDATE_ISR_Disable,"ax",%progbits
 320              		.align	2
 321              		.global	UPDATE_ISR_Disable
 322              		.thumb
 323              		.thumb_func
 324              		.type	UPDATE_ISR_Disable, %function
 325              	UPDATE_ISR_Disable:
 326              	.LFB11:
 370:Generated_Source\PSoC5/UPDATE_ISR.c **** 
 371:Generated_Source\PSoC5/UPDATE_ISR.c **** 
 372:Generated_Source\PSoC5/UPDATE_ISR.c **** /*******************************************************************************
 373:Generated_Source\PSoC5/UPDATE_ISR.c **** * Function Name: UPDATE_ISR_Disable
 374:Generated_Source\PSoC5/UPDATE_ISR.c **** ********************************************************************************
 375:Generated_Source\PSoC5/UPDATE_ISR.c **** *
 376:Generated_Source\PSoC5/UPDATE_ISR.c **** * Summary:
 377:Generated_Source\PSoC5/UPDATE_ISR.c **** *   Disables the Interrupt in the interrupt controller.
 378:Generated_Source\PSoC5/UPDATE_ISR.c **** *
 379:Generated_Source\PSoC5/UPDATE_ISR.c **** * Parameters:
 380:Generated_Source\PSoC5/UPDATE_ISR.c **** *   None
 381:Generated_Source\PSoC5/UPDATE_ISR.c **** *
 382:Generated_Source\PSoC5/UPDATE_ISR.c **** * Return:
 383:Generated_Source\PSoC5/UPDATE_ISR.c **** *   None
 384:Generated_Source\PSoC5/UPDATE_ISR.c **** *
 385:Generated_Source\PSoC5/UPDATE_ISR.c **** *******************************************************************************/
 386:Generated_Source\PSoC5/UPDATE_ISR.c **** void UPDATE_ISR_Disable(void)
 387:Generated_Source\PSoC5/UPDATE_ISR.c **** {
 327              		.loc 1 387 0
 328              		.cfi_startproc
 329              		@ args = 0, pretend = 0, frame = 0
 330              		@ frame_needed = 0, uses_anonymous_args = 0
 331              		@ link register save eliminated.
 388:Generated_Source\PSoC5/UPDATE_ISR.c ****     /* Disable the general interrupt. */
 389:Generated_Source\PSoC5/UPDATE_ISR.c ****     *UPDATE_ISR_INTC_CLR_EN = UPDATE_ISR__INTC_MASK;
 332              		.loc 1 389 0
 333 0000 4FF48022 		mov	r2, #262144
 334 0004 014B     		ldr	r3, .L26
 335 0006 1A60     		str	r2, [r3]
 336 0008 7047     		bx	lr
 337              	.L27:
 338 000a 00BF     		.align	2
 339              	.L26:
 340 000c 80E100E0 		.word	-536813184
 341              		.cfi_endproc
 342              	.LFE11:
 343              		.size	UPDATE_ISR_Disable, .-UPDATE_ISR_Disable
 344              		.section	.text.UPDATE_ISR_Start,"ax",%progbits
 345              		.align	2
 346              		.global	UPDATE_ISR_Start
 347              		.thumb
 348              		.thumb_func
 349              		.type	UPDATE_ISR_Start, %function
 350              	UPDATE_ISR_Start:
 351              	.LFB1:
  70:Generated_Source\PSoC5/UPDATE_ISR.c ****     /* For all we know the interrupt is active. */
ARM GAS  C:\Users\chascha\AppData\Local\Temp\ccsfH0XI.s 			page 14


 352              		.loc 1 70 0
 353              		.cfi_startproc
 354              		@ args = 0, pretend = 0, frame = 0
 355              		@ frame_needed = 0, uses_anonymous_args = 0
 356 0000 08B5     		push	{r3, lr}
 357              		.cfi_def_cfa_offset 8
 358              		.cfi_offset 3, -8
 359              		.cfi_offset 14, -4
  72:Generated_Source\PSoC5/UPDATE_ISR.c **** 
 360              		.loc 1 72 0
 361 0002 FFF7FEFF 		bl	UPDATE_ISR_Disable
 362              	.LVL27:
  75:Generated_Source\PSoC5/UPDATE_ISR.c **** 
 363              		.loc 1 75 0
 364 0006 0448     		ldr	r0, .L30
 365 0008 FFF7FEFF 		bl	UPDATE_ISR_SetVector
 366              	.LVL28:
  78:Generated_Source\PSoC5/UPDATE_ISR.c **** 
 367              		.loc 1 78 0
 368 000c 0720     		movs	r0, #7
 369 000e FFF7FEFF 		bl	UPDATE_ISR_SetPriority
 370              	.LVL29:
  81:Generated_Source\PSoC5/UPDATE_ISR.c **** }
 371              		.loc 1 81 0
 372 0012 FFF7FEFF 		bl	UPDATE_ISR_Enable
 373              	.LVL30:
 374 0016 08BD     		pop	{r3, pc}
 375              	.L31:
 376              		.align	2
 377              	.L30:
 378 0018 00000000 		.word	UPDATE_ISR_Interrupt
 379              		.cfi_endproc
 380              	.LFE1:
 381              		.size	UPDATE_ISR_Start, .-UPDATE_ISR_Start
 382              		.section	.text.UPDATE_ISR_StartEx,"ax",%progbits
 383              		.align	2
 384              		.global	UPDATE_ISR_StartEx
 385              		.thumb
 386              		.thumb_func
 387              		.type	UPDATE_ISR_StartEx, %function
 388              	UPDATE_ISR_StartEx:
 389              	.LFB2:
 113:Generated_Source\PSoC5/UPDATE_ISR.c ****     /* For all we know the interrupt is active. */
 390              		.loc 1 113 0
 391              		.cfi_startproc
 392              		@ args = 0, pretend = 0, frame = 0
 393              		@ frame_needed = 0, uses_anonymous_args = 0
 394              	.LVL31:
 395 0000 10B5     		push	{r4, lr}
 396              		.cfi_def_cfa_offset 8
 397              		.cfi_offset 4, -8
 398              		.cfi_offset 14, -4
 399 0002 0446     		mov	r4, r0
 115:Generated_Source\PSoC5/UPDATE_ISR.c **** 
 400              		.loc 1 115 0
 401 0004 FFF7FEFF 		bl	UPDATE_ISR_Disable
 402              	.LVL32:
ARM GAS  C:\Users\chascha\AppData\Local\Temp\ccsfH0XI.s 			page 15


 118:Generated_Source\PSoC5/UPDATE_ISR.c **** 
 403              		.loc 1 118 0
 404 0008 2046     		mov	r0, r4
 405 000a FFF7FEFF 		bl	UPDATE_ISR_SetVector
 406              	.LVL33:
 121:Generated_Source\PSoC5/UPDATE_ISR.c **** 
 407              		.loc 1 121 0
 408 000e 0720     		movs	r0, #7
 409 0010 FFF7FEFF 		bl	UPDATE_ISR_SetPriority
 410              	.LVL34:
 124:Generated_Source\PSoC5/UPDATE_ISR.c **** }
 411              		.loc 1 124 0
 412 0014 FFF7FEFF 		bl	UPDATE_ISR_Enable
 413              	.LVL35:
 414 0018 10BD     		pop	{r4, pc}
 415              		.cfi_endproc
 416              	.LFE2:
 417              		.size	UPDATE_ISR_StartEx, .-UPDATE_ISR_StartEx
 418 001a 00BF     		.section	.text.UPDATE_ISR_Stop,"ax",%progbits
 419              		.align	2
 420              		.global	UPDATE_ISR_Stop
 421              		.thumb
 422              		.thumb_func
 423              		.type	UPDATE_ISR_Stop, %function
 424              	UPDATE_ISR_Stop:
 425              	.LFB3:
 143:Generated_Source\PSoC5/UPDATE_ISR.c ****     /* Disable this interrupt. */
 426              		.loc 1 143 0
 427              		.cfi_startproc
 428              		@ args = 0, pretend = 0, frame = 0
 429              		@ frame_needed = 0, uses_anonymous_args = 0
 430 0000 08B5     		push	{r3, lr}
 431              		.cfi_def_cfa_offset 8
 432              		.cfi_offset 3, -8
 433              		.cfi_offset 14, -4
 145:Generated_Source\PSoC5/UPDATE_ISR.c **** 
 434              		.loc 1 145 0
 435 0002 FFF7FEFF 		bl	UPDATE_ISR_Disable
 436              	.LVL36:
 148:Generated_Source\PSoC5/UPDATE_ISR.c **** }
 437              		.loc 1 148 0
 438 0006 0248     		ldr	r0, .L36
 439 0008 FFF7FEFF 		bl	UPDATE_ISR_SetVector
 440              	.LVL37:
 441 000c 08BD     		pop	{r3, pc}
 442              	.L37:
 443 000e 00BF     		.align	2
 444              	.L36:
 445 0010 00000000 		.word	IntDefaultHandler
 446              		.cfi_endproc
 447              	.LFE3:
 448              		.size	UPDATE_ISR_Stop, .-UPDATE_ISR_Stop
 449              		.section	.text.UPDATE_ISR_SetPending,"ax",%progbits
 450              		.align	2
 451              		.global	UPDATE_ISR_SetPending
 452              		.thumb
 453              		.thumb_func
ARM GAS  C:\Users\chascha\AppData\Local\Temp\ccsfH0XI.s 			page 16


 454              		.type	UPDATE_ISR_SetPending, %function
 455              	UPDATE_ISR_SetPending:
 456              	.LFB12:
 390:Generated_Source\PSoC5/UPDATE_ISR.c **** }
 391:Generated_Source\PSoC5/UPDATE_ISR.c **** 
 392:Generated_Source\PSoC5/UPDATE_ISR.c **** 
 393:Generated_Source\PSoC5/UPDATE_ISR.c **** /*******************************************************************************
 394:Generated_Source\PSoC5/UPDATE_ISR.c **** * Function Name: UPDATE_ISR_SetPending
 395:Generated_Source\PSoC5/UPDATE_ISR.c **** ********************************************************************************
 396:Generated_Source\PSoC5/UPDATE_ISR.c **** *
 397:Generated_Source\PSoC5/UPDATE_ISR.c **** * Summary:
 398:Generated_Source\PSoC5/UPDATE_ISR.c **** *   Causes the Interrupt to enter the pending state, a software method of
 399:Generated_Source\PSoC5/UPDATE_ISR.c **** *   generating the interrupt.
 400:Generated_Source\PSoC5/UPDATE_ISR.c **** *
 401:Generated_Source\PSoC5/UPDATE_ISR.c **** * Parameters:
 402:Generated_Source\PSoC5/UPDATE_ISR.c **** *   None
 403:Generated_Source\PSoC5/UPDATE_ISR.c **** *
 404:Generated_Source\PSoC5/UPDATE_ISR.c **** * Return:
 405:Generated_Source\PSoC5/UPDATE_ISR.c **** *   None
 406:Generated_Source\PSoC5/UPDATE_ISR.c **** *
 407:Generated_Source\PSoC5/UPDATE_ISR.c **** * Side Effects:
 408:Generated_Source\PSoC5/UPDATE_ISR.c **** *   If interrupts are enabled and the interrupt is set up properly, the ISR is
 409:Generated_Source\PSoC5/UPDATE_ISR.c **** *   entered (depending on the priority of this interrupt and other pending 
 410:Generated_Source\PSoC5/UPDATE_ISR.c **** *   interrupts).
 411:Generated_Source\PSoC5/UPDATE_ISR.c **** *
 412:Generated_Source\PSoC5/UPDATE_ISR.c **** *******************************************************************************/
 413:Generated_Source\PSoC5/UPDATE_ISR.c **** void UPDATE_ISR_SetPending(void)
 414:Generated_Source\PSoC5/UPDATE_ISR.c **** {
 457              		.loc 1 414 0
 458              		.cfi_startproc
 459              		@ args = 0, pretend = 0, frame = 0
 460              		@ frame_needed = 0, uses_anonymous_args = 0
 461              		@ link register save eliminated.
 415:Generated_Source\PSoC5/UPDATE_ISR.c ****     *UPDATE_ISR_INTC_SET_PD = UPDATE_ISR__INTC_MASK;
 462              		.loc 1 415 0
 463 0000 4FF48022 		mov	r2, #262144
 464 0004 014B     		ldr	r3, .L39
 465 0006 1A60     		str	r2, [r3]
 466 0008 7047     		bx	lr
 467              	.L40:
 468 000a 00BF     		.align	2
 469              	.L39:
 470 000c 00E200E0 		.word	-536813056
 471              		.cfi_endproc
 472              	.LFE12:
 473              		.size	UPDATE_ISR_SetPending, .-UPDATE_ISR_SetPending
 474              		.section	.text.UPDATE_ISR_ClearPending,"ax",%progbits
 475              		.align	2
 476              		.global	UPDATE_ISR_ClearPending
 477              		.thumb
 478              		.thumb_func
 479              		.type	UPDATE_ISR_ClearPending, %function
 480              	UPDATE_ISR_ClearPending:
 481              	.LFB13:
 416:Generated_Source\PSoC5/UPDATE_ISR.c **** }
 417:Generated_Source\PSoC5/UPDATE_ISR.c **** 
 418:Generated_Source\PSoC5/UPDATE_ISR.c **** 
ARM GAS  C:\Users\chascha\AppData\Local\Temp\ccsfH0XI.s 			page 17


 419:Generated_Source\PSoC5/UPDATE_ISR.c **** /*******************************************************************************
 420:Generated_Source\PSoC5/UPDATE_ISR.c **** * Function Name: UPDATE_ISR_ClearPending
 421:Generated_Source\PSoC5/UPDATE_ISR.c **** ********************************************************************************
 422:Generated_Source\PSoC5/UPDATE_ISR.c **** *
 423:Generated_Source\PSoC5/UPDATE_ISR.c **** * Summary:
 424:Generated_Source\PSoC5/UPDATE_ISR.c **** *   Clears a pending interrupt in the interrupt controller.
 425:Generated_Source\PSoC5/UPDATE_ISR.c **** *
 426:Generated_Source\PSoC5/UPDATE_ISR.c **** *   Note Some interrupt sources are clear-on-read and require the block 
 427:Generated_Source\PSoC5/UPDATE_ISR.c **** *   interrupt/status register to be read/cleared with the appropriate block API 
 428:Generated_Source\PSoC5/UPDATE_ISR.c **** *   (GPIO, UART, and so on). Otherwise the ISR will continue to remain in 
 429:Generated_Source\PSoC5/UPDATE_ISR.c **** *   pending state even though the interrupt itself is cleared using this API.
 430:Generated_Source\PSoC5/UPDATE_ISR.c **** *
 431:Generated_Source\PSoC5/UPDATE_ISR.c **** * Parameters:
 432:Generated_Source\PSoC5/UPDATE_ISR.c **** *   None
 433:Generated_Source\PSoC5/UPDATE_ISR.c **** *
 434:Generated_Source\PSoC5/UPDATE_ISR.c **** * Return:
 435:Generated_Source\PSoC5/UPDATE_ISR.c **** *   None
 436:Generated_Source\PSoC5/UPDATE_ISR.c **** *
 437:Generated_Source\PSoC5/UPDATE_ISR.c **** *******************************************************************************/
 438:Generated_Source\PSoC5/UPDATE_ISR.c **** void UPDATE_ISR_ClearPending(void)
 439:Generated_Source\PSoC5/UPDATE_ISR.c **** {
 482              		.loc 1 439 0
 483              		.cfi_startproc
 484              		@ args = 0, pretend = 0, frame = 0
 485              		@ frame_needed = 0, uses_anonymous_args = 0
 486              		@ link register save eliminated.
 440:Generated_Source\PSoC5/UPDATE_ISR.c ****     *UPDATE_ISR_INTC_CLR_PD = UPDATE_ISR__INTC_MASK;
 487              		.loc 1 440 0
 488 0000 4FF48022 		mov	r2, #262144
 489 0004 014B     		ldr	r3, .L42
 490 0006 1A60     		str	r2, [r3]
 491 0008 7047     		bx	lr
 492              	.L43:
 493 000a 00BF     		.align	2
 494              	.L42:
 495 000c 80E200E0 		.word	-536812928
 496              		.cfi_endproc
 497              	.LFE13:
 498              		.size	UPDATE_ISR_ClearPending, .-UPDATE_ISR_ClearPending
 499              		.comm	buttonID,1,1
 500              		.comm	FPSID,1,1
 501              		.comm	FPSmPos,1,1
 502              		.comm	mPos,4,4
 503              		.section	.rodata.str1.4,"aMS",%progbits,1
 504              		.align	2
 505              	.LC0:
 506 0000 49443A00 		.ascii	"ID:\000"
 507              	.LC1:
 508 0004 256400   		.ascii	"%d\000"
 509 0007 00       		.space	1
 510              	.LC2:
 511 0008 72506F73 		.ascii	"rPos:\000"
 511      3A00
 512 000e 0000     		.space	2
 513              	.LC3:
 514 0010 63506F73 		.ascii	"cPos:\000"
 514      3A00
ARM GAS  C:\Users\chascha\AppData\Local\Temp\ccsfH0XI.s 			page 18


 515 0016 0000     		.space	2
 516              	.LC4:
 517 0018 6249443A 		.ascii	"bID:\000"
 517      00
 518              		.text
 519              	.Letext0:
 520              		.file 2 "Generated_Source\\PSoC5/cytypes.h"
 521              		.file 3 "Generated_Source\\PSoC5/CyLib.h"
 522              		.file 4 "Generated_Source\\PSoC5\\I2C.h"
 523              		.file 5 "Generated_Source\\PSoC5\\LCD_I2C_FUNCS.h"
 524              		.file 6 "c:\\program files (x86)\\cypress\\psoc creator\\4.2\\psoc creator\\import\\gnu\\arm\\5.4.
 525              		.file 7 "Generated_Source\\PSoC5\\UpdateTimer.h"