ARM GAS  C:\Users\chascha\AppData\Local\Temp\ccYfqd3z.s 			page 1


   1              		.syntax unified
   2              		.cpu cortex-m3
   3              		.fpu softvfp
   4              		.eabi_attribute 20, 1
   5              		.eabi_attribute 21, 1
   6              		.eabi_attribute 23, 3
   7              		.eabi_attribute 24, 1
   8              		.eabi_attribute 25, 1
   9              		.eabi_attribute 26, 1
  10              		.eabi_attribute 30, 1
  11              		.eabi_attribute 34, 1
  12              		.eabi_attribute 18, 4
  13              		.thumb
  14              		.syntax unified
  15              		.file	"utils.c"
  16              		.text
  17              	.Ltext0:
  18              		.cfi_sections	.debug_frame
  19              		.section	.text.str2lower,"ax",%progbits
  20              		.align	2
  21              		.global	str2lower
  22              		.thumb
  23              		.thumb_func
  24              		.type	str2lower, %function
  25              	str2lower:
  26              	.LFB64:
  27              		.file 1 "utils.c"
   1:utils.c       **** #include "project.h"
   2:utils.c       **** #include <stdio.h>
   3:utils.c       **** #include <string.h>
   4:utils.c       **** #include "utils.h"
   5:utils.c       **** 
   6:utils.c       **** extern char str[] ;
   7:utils.c       **** extern cmd_func_type cmd_list[] ;
   8:utils.c       **** 
   9:utils.c       **** int str2lower(char *str)
  10:utils.c       **** {
  28              		.loc 1 10 0
  29              		.cfi_startproc
  30              		@ args = 0, pretend = 0, frame = 0
  31              		@ frame_needed = 0, uses_anonymous_args = 0
  32              		@ link register save eliminated.
  33              	.LVL0:
  34 0000 10B4     		push	{r4}
  35              		.cfi_def_cfa_offset 4
  36              		.cfi_offset 4, -4
  37              	.LVL1:
  11:utils.c       ****     int i = 0 ;
  12:utils.c       ****     for (i = 0 ; str && str[i] ; i++ ) {
  38              		.loc 1 12 0
  39 0002 0022     		movs	r2, #0
  40 0004 07E0     		b	.L2
  41              	.LVL2:
  42              	.L5:
  13:utils.c       ****         if (('A' <= str[i])&&(str[i] <= 'Z')) { /* Upper case */
  43              		.loc 1 13 0
  44 0006 A3F14101 		sub	r1, r3, #65
ARM GAS  C:\Users\chascha\AppData\Local\Temp\ccYfqd3z.s 			page 2


  45 000a C9B2     		uxtb	r1, r1
  46 000c 1929     		cmp	r1, #25
  47 000e 01D8     		bhi	.L3
  14:utils.c       ****             str[i] += 'a' - 'A' ;
  48              		.loc 1 14 0
  49 0010 2033     		adds	r3, r3, #32
  50 0012 2370     		strb	r3, [r4]
  51              	.L3:
  12:utils.c       ****         if (('A' <= str[i])&&(str[i] <= 'Z')) { /* Upper case */
  52              		.loc 1 12 0 discriminator 2
  53 0014 0132     		adds	r2, r2, #1
  54              	.LVL3:
  55              	.L2:
  12:utils.c       ****         if (('A' <= str[i])&&(str[i] <= 'Z')) { /* Upper case */
  56              		.loc 1 12 0 is_stmt 0 discriminator 1
  57 0016 18B1     		cbz	r0, .L4
  12:utils.c       ****         if (('A' <= str[i])&&(str[i] <= 'Z')) { /* Upper case */
  58              		.loc 1 12 0 discriminator 3
  59 0018 8418     		adds	r4, r0, r2
  60 001a 835C     		ldrb	r3, [r0, r2]	@ zero_extendqisi2
  61 001c 002B     		cmp	r3, #0
  62 001e F2D1     		bne	.L5
  63              	.L4:
  15:utils.c       ****         }
  16:utils.c       ****     }
  17:utils.c       ****     return(i) ;
  18:utils.c       **** }
  64              		.loc 1 18 0 is_stmt 1
  65 0020 1046     		mov	r0, r2
  66              	.LVL4:
  67 0022 10BC     		pop	{r4}
  68              		.cfi_restore 4
  69              		.cfi_def_cfa_offset 0
  70 0024 7047     		bx	lr
  71              		.cfi_endproc
  72              	.LFE64:
  73              		.size	str2lower, .-str2lower
  74 0026 00BF     		.section	.text.str2upper,"ax",%progbits
  75              		.align	2
  76              		.global	str2upper
  77              		.thumb
  78              		.thumb_func
  79              		.type	str2upper, %function
  80              	str2upper:
  81              	.LFB65:
  19:utils.c       **** 
  20:utils.c       **** int str2upper(char str[])
  21:utils.c       **** {
  82              		.loc 1 21 0
  83              		.cfi_startproc
  84              		@ args = 0, pretend = 0, frame = 0
  85              		@ frame_needed = 0, uses_anonymous_args = 0
  86              		@ link register save eliminated.
  87              	.LVL5:
  88 0000 10B4     		push	{r4}
  89              		.cfi_def_cfa_offset 4
  90              		.cfi_offset 4, -4
ARM GAS  C:\Users\chascha\AppData\Local\Temp\ccYfqd3z.s 			page 3


  91              	.LVL6:
  22:utils.c       ****     int i = 0 ;
  23:utils.c       ****     for (i = 0 ; str && str[i] ; i++ ) {
  92              		.loc 1 23 0
  93 0002 0022     		movs	r2, #0
  94 0004 07E0     		b	.L8
  95              	.LVL7:
  96              	.L11:
  24:utils.c       ****         if (('a' <= str[i])&&(str[i] <= 'z')) { /* Upper case */
  97              		.loc 1 24 0
  98 0006 A3F16101 		sub	r1, r3, #97
  99 000a C9B2     		uxtb	r1, r1
 100 000c 1929     		cmp	r1, #25
 101 000e 01D8     		bhi	.L9
  25:utils.c       ****             str[i] -= ('a' - 'A') ;
 102              		.loc 1 25 0
 103 0010 203B     		subs	r3, r3, #32
 104 0012 2370     		strb	r3, [r4]
 105              	.L9:
  23:utils.c       ****         if (('a' <= str[i])&&(str[i] <= 'z')) { /* Upper case */
 106              		.loc 1 23 0 discriminator 2
 107 0014 0132     		adds	r2, r2, #1
 108              	.LVL8:
 109              	.L8:
  23:utils.c       ****         if (('a' <= str[i])&&(str[i] <= 'z')) { /* Upper case */
 110              		.loc 1 23 0 is_stmt 0 discriminator 1
 111 0016 18B1     		cbz	r0, .L10
  23:utils.c       ****         if (('a' <= str[i])&&(str[i] <= 'z')) { /* Upper case */
 112              		.loc 1 23 0 discriminator 3
 113 0018 8418     		adds	r4, r0, r2
 114 001a 835C     		ldrb	r3, [r0, r2]	@ zero_extendqisi2
 115 001c 002B     		cmp	r3, #0
 116 001e F2D1     		bne	.L11
 117              	.L10:
  26:utils.c       ****         }
  27:utils.c       ****     }
  28:utils.c       ****     return(i) ;    
  29:utils.c       **** }
 118              		.loc 1 29 0 is_stmt 1
 119 0020 1046     		mov	r0, r2
 120              	.LVL9:
 121 0022 10BC     		pop	{r4}
 122              		.cfi_restore 4
 123              		.cfi_def_cfa_offset 0
 124 0024 7047     		bx	lr
 125              		.cfi_endproc
 126              	.LFE65:
 127              		.size	str2upper, .-str2upper
 128 0026 00BF     		.section	.text.print,"ax",%progbits
 129              		.align	2
 130              		.global	print
 131              		.thumb
 132              		.thumb_func
 133              		.type	print, %function
 134              	print:
 135              	.LFB66:
  30:utils.c       **** 
ARM GAS  C:\Users\chascha\AppData\Local\Temp\ccYfqd3z.s 			page 4


  31:utils.c       **** void print(char *str) 
  32:utils.c       **** {
 136              		.loc 1 32 0
 137              		.cfi_startproc
 138              		@ args = 0, pretend = 0, frame = 0
 139              		@ frame_needed = 0, uses_anonymous_args = 0
 140              	.LVL10:
 141 0000 08B5     		push	{r3, lr}
 142              		.cfi_def_cfa_offset 8
 143              		.cfi_offset 3, -8
 144              		.cfi_offset 14, -4
  33:utils.c       ****     UART_PutString(str) ;
 145              		.loc 1 33 0
 146 0002 FFF7FEFF 		bl	UART_PutString
 147              	.LVL11:
 148 0006 08BD     		pop	{r3, pc}
 149              		.cfi_endproc
 150              	.LFE66:
 151              		.size	print, .-print
 152              		.section	.text.get_string,"ax",%progbits
 153              		.align	2
 154              		.global	get_string
 155              		.thumb
 156              		.thumb_func
 157              		.type	get_string, %function
 158              	get_string:
 159              	.LFB67:
  34:utils.c       **** }
  35:utils.c       **** 
  36:utils.c       **** int get_string(char str[])
  37:utils.c       **** {
 160              		.loc 1 37 0
 161              		.cfi_startproc
 162              		@ args = 0, pretend = 0, frame = 0
 163              		@ frame_needed = 0, uses_anonymous_args = 0
 164              	.LVL12:
 165 0000 70B5     		push	{r4, r5, r6, lr}
 166              		.cfi_def_cfa_offset 16
 167              		.cfi_offset 4, -16
 168              		.cfi_offset 5, -12
 169              		.cfi_offset 6, -8
 170              		.cfi_offset 14, -4
 171 0002 0646     		mov	r6, r0
 172              	.LVL13:
  38:utils.c       ****     char c ;
  39:utils.c       ****     int index = 0 ;
 173              		.loc 1 39 0
 174 0004 0024     		movs	r4, #0
  40:utils.c       ****     
  41:utils.c       ****     while(index < STR_LENGTH) {
 175              		.loc 1 41 0
 176 0006 20E0     		b	.L17
 177              	.LVL14:
 178              	.L23:
  42:utils.c       ****         if (UART_GetRxBufferSize() > 0) {
 179              		.loc 1 42 0
 180 0008 FFF7FEFF 		bl	UART_GetRxBufferSize
ARM GAS  C:\Users\chascha\AppData\Local\Temp\ccYfqd3z.s 			page 5


 181              	.LVL15:
 182 000c E8B1     		cbz	r0, .L17
  43:utils.c       ****             c = UART_GetChar() ;
 183              		.loc 1 43 0
 184 000e FFF7FEFF 		bl	UART_GetChar
 185              	.LVL16:
 186 0012 0546     		mov	r5, r0
 187              	.LVL17:
  44:utils.c       **** 
  45:utils.c       ****             if (c == BS) {
 188              		.loc 1 45 0
 189 0014 0828     		cmp	r0, #8
 190 0016 08D1     		bne	.L18
  46:utils.c       ****                 if (index > 0) {
 191              		.loc 1 46 0
 192 0018 002C     		cmp	r4, #0
 193 001a 16DD     		ble	.L17
  47:utils.c       ****                     str[--index] = (char)NULL ;
 194              		.loc 1 47 0
 195 001c 013C     		subs	r4, r4, #1
 196              	.LVL18:
 197 001e 0023     		movs	r3, #0
 198 0020 3355     		strb	r3, [r6, r4]
  48:utils.c       ****                     UART_PutString("\b \b") ;
 199              		.loc 1 48 0
 200 0022 0D48     		ldr	r0, .L25
 201              	.LVL19:
 202 0024 FFF7FEFF 		bl	UART_PutString
 203              	.LVL20:
 204 0028 0FE0     		b	.L17
 205              	.LVL21:
 206              	.L18:
  49:utils.c       ****                 }
  50:utils.c       ****             } else if ((c == CR)||(c == LF)||(c == TAB)||(c == SPACE)) {
 207              		.loc 1 50 0
 208 002a 0D28     		cmp	r0, #13
 209 002c 05D0     		beq	.L20
 210              		.loc 1 50 0 is_stmt 0 discriminator 1
 211 002e 0A28     		cmp	r0, #10
 212 0030 03D0     		beq	.L20
 213              		.loc 1 50 0 discriminator 2
 214 0032 0928     		cmp	r0, #9
 215 0034 01D0     		beq	.L20
 216              		.loc 1 50 0 discriminator 3
 217 0036 2028     		cmp	r0, #32
 218 0038 03D1     		bne	.L21
 219              	.L20:
  51:utils.c       ****                 UART_PutChar(c) ;
 220              		.loc 1 51 0 is_stmt 1
 221 003a 2846     		mov	r0, r5
 222              	.LVL22:
 223 003c FFF7FEFF 		bl	UART_PutChar
 224              	.LVL23:
  52:utils.c       ****                 break ;
 225              		.loc 1 52 0
 226 0040 05E0     		b	.L22
 227              	.LVL24:
ARM GAS  C:\Users\chascha\AppData\Local\Temp\ccYfqd3z.s 			page 6


 228              	.L21:
  53:utils.c       ****             } else {
  54:utils.c       ****                 UART_PutChar(c) ;
 229              		.loc 1 54 0
 230 0042 FFF7FEFF 		bl	UART_PutChar
 231              	.LVL25:
  55:utils.c       ****                 str[index++] = c ;
 232              		.loc 1 55 0
 233 0046 3555     		strb	r5, [r6, r4]
 234 0048 0134     		adds	r4, r4, #1
 235              	.LVL26:
 236              	.L17:
  41:utils.c       ****         if (UART_GetRxBufferSize() > 0) {
 237              		.loc 1 41 0
 238 004a 7F2C     		cmp	r4, #127
 239 004c DCDD     		ble	.L23
 240              	.L22:
  56:utils.c       ****             }
  57:utils.c       ****         }
  58:utils.c       ****     }
  59:utils.c       ****     str[index] = (char)NULL ;
 241              		.loc 1 59 0
 242 004e 0023     		movs	r3, #0
 243 0050 3355     		strb	r3, [r6, r4]
  60:utils.c       ****     
  61:utils.c       ****     return(index) ;
  62:utils.c       **** }
 244              		.loc 1 62 0
 245 0052 2046     		mov	r0, r4
 246 0054 70BD     		pop	{r4, r5, r6, pc}
 247              	.LVL27:
 248              	.L26:
 249 0056 00BF     		.align	2
 250              	.L25:
 251 0058 00000000 		.word	.LC0
 252              		.cfi_endproc
 253              	.LFE67:
 254              		.size	get_string, .-get_string
 255              		.section	.text.get_line,"ax",%progbits
 256              		.align	2
 257              		.global	get_line
 258              		.thumb
 259              		.thumb_func
 260              		.type	get_line, %function
 261              	get_line:
 262              	.LFB68:
  63:utils.c       **** 
  64:utils.c       **** int get_line(char str[])
  65:utils.c       **** {
 263              		.loc 1 65 0
 264              		.cfi_startproc
 265              		@ args = 0, pretend = 0, frame = 0
 266              		@ frame_needed = 0, uses_anonymous_args = 0
 267              	.LVL28:
 268 0000 70B5     		push	{r4, r5, r6, lr}
 269              		.cfi_def_cfa_offset 16
 270              		.cfi_offset 4, -16
ARM GAS  C:\Users\chascha\AppData\Local\Temp\ccYfqd3z.s 			page 7


 271              		.cfi_offset 5, -12
 272              		.cfi_offset 6, -8
 273              		.cfi_offset 14, -4
 274 0002 0646     		mov	r6, r0
 275              	.LVL29:
  66:utils.c       ****     char c ;
  67:utils.c       ****     int index = 0 ;
 276              		.loc 1 67 0
 277 0004 0024     		movs	r4, #0
  68:utils.c       ****     
  69:utils.c       ****     while(index < STR_LENGTH) {
 278              		.loc 1 69 0
 279 0006 1CE0     		b	.L29
 280              	.LVL30:
 281              	.L35:
  70:utils.c       ****         if (UART_GetRxBufferSize() > 0) {
 282              		.loc 1 70 0
 283 0008 FFF7FEFF 		bl	UART_GetRxBufferSize
 284              	.LVL31:
 285 000c C8B1     		cbz	r0, .L29
  71:utils.c       ****             c = UART_GetChar() ;
 286              		.loc 1 71 0
 287 000e FFF7FEFF 		bl	UART_GetChar
 288              	.LVL32:
 289 0012 0546     		mov	r5, r0
 290              	.LVL33:
  72:utils.c       **** 
  73:utils.c       ****             if (c == BS) {
 291              		.loc 1 73 0
 292 0014 0828     		cmp	r0, #8
 293 0016 08D1     		bne	.L30
  74:utils.c       ****                 if (index > 0) {
 294              		.loc 1 74 0
 295 0018 002C     		cmp	r4, #0
 296 001a 12DD     		ble	.L29
  75:utils.c       ****                     str[--index] = (char)NULL ;
 297              		.loc 1 75 0
 298 001c 013C     		subs	r4, r4, #1
 299              	.LVL34:
 300 001e 0023     		movs	r3, #0
 301 0020 3355     		strb	r3, [r6, r4]
  76:utils.c       ****                     UART_PutString("\b \b") ;
 302              		.loc 1 76 0
 303 0022 0B48     		ldr	r0, .L37
 304              	.LVL35:
 305 0024 FFF7FEFF 		bl	UART_PutString
 306              	.LVL36:
 307 0028 0BE0     		b	.L29
 308              	.LVL37:
 309              	.L30:
  77:utils.c       ****                 }
  78:utils.c       ****             } else if ((c == CR)||(c == LF)) {
 310              		.loc 1 78 0
 311 002a 0D28     		cmp	r0, #13
 312 002c 01D0     		beq	.L32
 313              		.loc 1 78 0 is_stmt 0 discriminator 1
 314 002e 0A28     		cmp	r0, #10
ARM GAS  C:\Users\chascha\AppData\Local\Temp\ccYfqd3z.s 			page 8


 315 0030 03D1     		bne	.L33
 316              	.L32:
  79:utils.c       ****                 UART_PutChar(c) ;
 317              		.loc 1 79 0 is_stmt 1
 318 0032 2846     		mov	r0, r5
 319              	.LVL38:
 320 0034 FFF7FEFF 		bl	UART_PutChar
 321              	.LVL39:
  80:utils.c       ****                 break ;
 322              		.loc 1 80 0
 323 0038 05E0     		b	.L34
 324              	.LVL40:
 325              	.L33:
  81:utils.c       ****             } else {
  82:utils.c       ****                 UART_PutChar(c) ;
 326              		.loc 1 82 0
 327 003a FFF7FEFF 		bl	UART_PutChar
 328              	.LVL41:
  83:utils.c       ****                 str[index++] = c ;
 329              		.loc 1 83 0
 330 003e 3555     		strb	r5, [r6, r4]
 331 0040 0134     		adds	r4, r4, #1
 332              	.LVL42:
 333              	.L29:
  69:utils.c       ****         if (UART_GetRxBufferSize() > 0) {
 334              		.loc 1 69 0
 335 0042 7F2C     		cmp	r4, #127
 336 0044 E0DD     		ble	.L35
 337              	.L34:
  84:utils.c       ****             }
  85:utils.c       ****         }
  86:utils.c       ****     }
  87:utils.c       ****     str[index] = (char)NULL ;
 338              		.loc 1 87 0
 339 0046 0023     		movs	r3, #0
 340 0048 3355     		strb	r3, [r6, r4]
  88:utils.c       ****     
  89:utils.c       ****     return(index) ;
  90:utils.c       **** }
 341              		.loc 1 90 0
 342 004a 2046     		mov	r0, r4
 343 004c 70BD     		pop	{r4, r5, r6, pc}
 344              	.LVL43:
 345              	.L38:
 346 004e 00BF     		.align	2
 347              	.L37:
 348 0050 00000000 		.word	.LC0
 349              		.cfi_endproc
 350              	.LFE68:
 351              		.size	get_line, .-get_line
 352              		.section	.text.get_func,"ax",%progbits
 353              		.align	2
 354              		.global	get_func
 355              		.thumb
 356              		.thumb_func
 357              		.type	get_func, %function
 358              	get_func:
ARM GAS  C:\Users\chascha\AppData\Local\Temp\ccYfqd3z.s 			page 9


 359              	.LFB69:
  91:utils.c       **** 
  92:utils.c       **** FuncPtr get_func(char cmd[]) 
  93:utils.c       **** {
 360              		.loc 1 93 0
 361              		.cfi_startproc
 362              		@ args = 0, pretend = 0, frame = 0
 363              		@ frame_needed = 0, uses_anonymous_args = 0
 364              	.LVL44:
 365 0000 38B5     		push	{r3, r4, r5, lr}
 366              		.cfi_def_cfa_offset 16
 367              		.cfi_offset 3, -16
 368              		.cfi_offset 4, -12
 369              		.cfi_offset 5, -8
 370              		.cfi_offset 14, -4
 371 0002 0546     		mov	r5, r0
 372              	.LVL45:
  94:utils.c       ****     int i = 0 ;
  95:utils.c       ****     str2lower(cmd) ;
 373              		.loc 1 95 0
 374 0004 FFF7FEFF 		bl	str2lower
 375              	.LVL46:
  94:utils.c       ****     int i = 0 ;
 376              		.loc 1 94 0
 377 0008 0024     		movs	r4, #0
  96:utils.c       ****     while(cmd_list[i].cmd) {
 378              		.loc 1 96 0
 379 000a 0BE0     		b	.L40
 380              	.LVL47:
 381              	.L43:
  97:utils.c       ****         if (strcmp(cmd, cmd_list[i].cmd) == 0) {
 382              		.loc 1 97 0
 383 000c 2846     		mov	r0, r5
 384 000e FFF7FEFF 		bl	strcmp
 385              	.LVL48:
 386 0012 30B9     		cbnz	r0, .L41
  98:utils.c       ****             return(cmd_list[i].func) ;
 387              		.loc 1 98 0
 388 0014 04EB4404 		add	r4, r4, r4, lsl #1
 389              	.LVL49:
 390 0018 A300     		lsls	r3, r4, #2
 391 001a 074A     		ldr	r2, .L45
 392 001c 1344     		add	r3, r3, r2
 393 001e 5868     		ldr	r0, [r3, #4]
 394 0020 38BD     		pop	{r3, r4, r5, pc}
 395              	.LVL50:
 396              	.L41:
  99:utils.c       ****         }
 100:utils.c       ****         i++ ;
 397              		.loc 1 100 0
 398 0022 0134     		adds	r4, r4, #1
 399              	.LVL51:
 400              	.L40:
  96:utils.c       ****         if (strcmp(cmd, cmd_list[i].cmd) == 0) {
 401              		.loc 1 96 0
 402 0024 04EB4402 		add	r2, r4, r4, lsl #1
 403 0028 9300     		lsls	r3, r2, #2
ARM GAS  C:\Users\chascha\AppData\Local\Temp\ccYfqd3z.s 			page 10


 404 002a 034A     		ldr	r2, .L45
 405 002c D158     		ldr	r1, [r2, r3]
 406 002e 0029     		cmp	r1, #0
 407 0030 ECD1     		bne	.L43
 101:utils.c       ****     }
 102:utils.c       ****     return( 0 ) ;
 408              		.loc 1 102 0
 409 0032 0020     		movs	r0, #0
 103:utils.c       **** }
 410              		.loc 1 103 0
 411 0034 38BD     		pop	{r3, r4, r5, pc}
 412              	.LVL52:
 413              	.L46:
 414 0036 00BF     		.align	2
 415              	.L45:
 416 0038 00000000 		.word	cmd_list
 417              		.cfi_endproc
 418              	.LFE69:
 419              		.size	get_func, .-get_func
 420              		.section	.rodata.str1.4,"aMS",%progbits,1
 421              		.align	2
 422              	.LC0:
 423 0000 08200800 		.ascii	"\010 \010\000"
 424              		.text
 425              	.Letext0:
 426              		.file 2 "c:\\program files (x86)\\cypress\\psoc creator\\4.2\\psoc creator\\import\\gnu\\arm\\5.4.
 427              		.file 3 "c:\\program files (x86)\\cypress\\psoc creator\\4.2\\psoc creator\\import\\gnu\\arm\\5.4.
 428              		.file 4 "utils.h"
 429              		.file 5 "Generated_Source\\PSoC5/core_cm3.h"
 430              		.file 6 "Generated_Source\\PSoC5/UART.h"
 431              		.file 7 "c:\\program files (x86)\\cypress\\psoc creator\\4.2\\psoc creator\\import\\gnu\\arm\\5.4.